(lp1
cnumpy.core.multiarray
scalar
p2
(cnumpy
dtype
p3
(S'u2'
I0
I1
tRp4
(I3
S'<'
NNNI-1
I-1
I0
tbS'\x03 '
tRp5
ag2
(g4
S'\x06@'
tRp6
ag2
(g4
S'\t`'
tRp7
ag2
(g4
S'\x0c\x80'
tRp8
ag2
(g4
S'\x0f\xa0'
tRp9
ag2
(g4
S'\x12\xc0'
tRp10
ag2
(g4
S'\x15\xe0'
tRp11
ag2
(g4
S'\x19\x00'
tRp12
ag2
(g4
S'\x1c '
tRp13
ag2
(g4
S'\x1f@'
tRp14
ag2
(g4
S'"`'
tRp15
ag2
(g4
S'%\x80'
tRp16
ag2
(g4
S'(\xa0'
tRp17
ag2
(g4
S'+\xc0'
tRp18
ag2
(g4
S'.\xe0'
tRp19
ag2
(g4
S'2\x00'
tRp20
ag2
(g4
S'5 '
tRp21
ag2
(g4
S'8@'
tRp22
ag2
(g4
S'<`'
tRp23
ag2
(g4
S'?\x80'
tRp24
ag2
(g4
S'B\xa0'
tRp25
ag2
(g4
S'E\xc0'
tRp26
ag2
(g4
S'H\xe0'
tRp27
ag2
(g4
S'L\x00'
tRp28
ag2
(g4
S'O '
tRp29
ag2
(g4
S'R@'
tRp30
ag2
(g4
S'U`'
tRp31
ag2
(g4
S'X\x80'
tRp32
ag2
(g4
S'[\xa0'
tRp33
ag2
(g4
S'^\xc0'
tRp34
ag2
(g4
S'a\xe0'
tRp35
ag2
(g4
S'e\x00'
tRp36
ag2
(g4
S'h '
tRp37
ag2
(g4
S'k@'
tRp38
ag2
(g4
S'n`'
tRp39
ag2
(g4
S'q\x80'
tRp40
ag2
(g4
S't\xa0'
tRp41
ag2
(g4
S'w\xc0'
tRp42
ag2
(g4
S'z\xe0'
tRp43
ag2
(g4
S'~\x00'
tRp44
ag2
(g4
S'\x81 '
tRp45
ag2
(g4
S'\x84@'
tRp46
ag2
(g4
S'\x87`'
tRp47
ag2
(g4
S'\x8a\x80'
tRp48
ag2
(g4
S'\x8d\xa0'
tRp49
ag2
(g4
S'\x90\xc0'
tRp50
ag2
(g4
S'\x93\xe0'
tRp51
ag2
(g4
S'\x97\x00'
tRp52
ag2
(g4
S'\x9a '
tRp53
ag2
(g4
S'\x9d@'
tRp54
ag2
(g4
S'\xa0`'
tRp55
ag2
(g4
S'\xa3\x80'
tRp56
ag2
(g4
S'\xa6\xa0'
tRp57
ag2
(g4
S'\xa9\xc0'
tRp58
ag2
(g4
S'\xac\xe0'
tRp59
ag2
(g4
S'\xb1\x00'
tRp60
ag2
(g4
S'\xb4 '
tRp61
ag2
(g4
S'\xb7@'
tRp62
ag2
(g4
S'\xba`'
tRp63
ag2
(g4
S'\xbd\x80'
tRp64
ag2
(g4
S'\xc0\xa0'
tRp65
ag2
(g4
S'\xc3\xc0'
tRp66
ag2
(g4
S'\xc6\xe0'
tRp67
ag2
(g4
S'\xca\x00'
tRp68
ag2
(g4
S'\xcd '
tRp69
ag2
(g4
S'\xd0@'
tRp70
ag2
(g4
S'\xd3`'
tRp71
ag2
(g4
S'\xd6\x80'
tRp72
ag2
(g4
S'\xd9\xa0'
tRp73
ag2
(g4
S'\xdc\xc0'
tRp74
ag2
(g4
S'\xdf\xe0'
tRp75
ag2
(g4
S'\xe3\x00'
tRp76
ag2
(g4
S'\xe6 '
tRp77
ag2
(g4
S'\xe9@'
tRp78
ag2
(g4
S'\xec`'
tRp79
ag2
(g4
S'\xef\x80'
tRp80
ag2
(g4
S'\xf2\xa0'
tRp81
ag2
(g4
S'\xf5\xc0'
tRp82
ag2
(g4
S'\xf8\xe0'
tRp83
ag2
(g4
S'\xfc\x00'
tRp84
ag2
(g4
S'\xff '
tRp85
ag2
(g4
S'\x02A'
tRp86
ag2
(g4
S'\x05a'
tRp87
ag2
(g4
S'\x08\x81'
tRp88
ag2
(g4
S'\x0b\xa1'
tRp89
ag2
(g4
S'\x0e\xc1'
tRp90
ag2
(g4
S'\x11\xe1'
tRp91
ag2
(g4
S'\x15\x01'
tRp92
ag2
(g4
S'\x18!'
tRp93
ag2
(g4
S'\x1bA'
tRp94
ag2
(g4
S'\x1ea'
tRp95
ag2
(g4
S'!\x81'
tRp96
ag2
(g4
S'%\xa1'
tRp97
ag2
(g4
S'(\xc1'
tRp98
ag2
(g4
S'+\xe1'
tRp99
ag2
(g4
S'/\x01'
tRp100
ag2
(g4
S'2!'
tRp101
ag2
(g4
S'5A'
tRp102
ag2
(g4
S'8a'
tRp103
ag2
(g4
S';\x81'
tRp104
ag2
(g4
S'>\xa1'
tRp105
ag2
(g4
S'A\xc1'
tRp106
ag2
(g4
S'D\xe1'
tRp107
ag2
(g4
S'H\x01'
tRp108
ag2
(g4
S'K!'
tRp109
ag2
(g4
S'NA'
tRp110
ag2
(g4
S'Qa'
tRp111
ag2
(g4
S'T\x81'
tRp112
ag2
(g4
S'W\xa1'
tRp113
ag2
(g4
S'Z\xc1'
tRp114
ag2
(g4
S']\xe1'
tRp115
ag2
(g4
S'a\x01'
tRp116
ag2
(g4
S'd!'
tRp117
ag2
(g4
S'gA'
tRp118
ag2
(g4
S'ja'
tRp119
ag2
(g4
S'm\x81'
tRp120
ag2
(g4
S'p\xa1'
tRp121
ag2
(g4
S's\xc1'
tRp122
ag2
(g4
S'v\xe1'
tRp123
ag2
(g4
S'z\x01'
tRp124
ag2
(g4
S'}!'
tRp125
ag2
(g4
S'\x80A'
tRp126
ag2
(g4
S'\x83a'
tRp127
ag2
(g4
S'\x86\x81'
tRp128
ag2
(g4
S'\x89\xa1'
tRp129
ag2
(g4
S'\x8c\xc1'
tRp130
ag2
(g4
S'\x8f\xe1'
tRp131
ag2
(g4
S'\x93\x01'
tRp132
ag2
(g4
S'\x96!'
tRp133
ag2
(g4
S'\x9aA'
tRp134
ag2
(g4
S'\x9da'
tRp135
ag2
(g4
S'\xa0\x81'
tRp136
ag2
(g4
S'\xa3\xa1'
tRp137
ag2
(g4
S'\xa6\xc1'
tRp138
ag2
(g4
S'\xa9\xe1'
tRp139
ag2
(g4
S'\xad\x01'
tRp140
ag2
(g4
S'\xb0!'
tRp141
ag2
(g4
S'\xb3A'
tRp142
ag2
(g4
S'\xb6a'
tRp143
ag2
(g4
S'\xb9\x81'
tRp144
ag2
(g4
S'\xbc\xa1'
tRp145
ag2
(g4
S'\xbf\xc1'
tRp146
ag2
(g4
S'\xc2\xe1'
tRp147
ag2
(g4
S'\xc6\x01'
tRp148
ag2
(g4
S'\xc9!'
tRp149
ag2
(g4
S'\xccA'
tRp150
ag2
(g4
S'\xcfa'
tRp151
ag2
(g4
S'\xd2\x81'
tRp152
ag2
(g4
S'\xd5\xa1'
tRp153
ag2
(g4
S'\xd8\xc1'
tRp154
ag2
(g4
S'\xdb\xe1'
tRp155
ag2
(g4
S'\xdf\x01'
tRp156
ag2
(g4
S'\xe2!'
tRp157
ag2
(g4
S'\xe5A'
tRp158
ag2
(g4
S'\xe8a'
tRp159
ag2
(g4
S'\xeb\x81'
tRp160
ag2
(g4
S'\xee\xa1'
tRp161
ag2
(g4
S'\xf1\xc1'
tRp162
ag2
(g4
S'\xf4\xe1'
tRp163
ag2
(g4
S'\xf8\x01'
tRp164
ag2
(g4
S'\xfb!'
tRp165
ag2
(g4
S'\xfeA'
tRp166
ag2
(g4
S'\x01b'
tRp167
ag2
(g4
S'\x04\x82'
tRp168
ag2
(g4
S'\x07\xa2'
tRp169
ag2
(g4
S'\n\xc2'
tRp170
ag2
(g4
S'\r\xe2'
tRp171
ag2
(g4
S'\x12\x02'
tRp172
ag2
(g4
S'\x15"'
tRp173
ag2
(g4
S'\x18B'
tRp174
ag2
(g4
S'\x1bb'
tRp175
ag2
(g4
S'\x1e\x82'
tRp176
ag2
(g4
S'!\xa2'
tRp177
ag2
(g4
S'$\xc2'
tRp178
ag2
(g4
S"'\xe2"
tRp179
ag2
(g4
S'+\x02'
tRp180
ag2
(g4
S'."'
tRp181
ag2
(g4
S'1B'
tRp182
ag2
(g4
S'4b'
tRp183
ag2
(g4
S'7\x82'
tRp184
ag2
(g4
S':\xa2'
tRp185
ag2
(g4
S'=\xc2'
tRp186
ag2
(g4
S'@\xe2'
tRp187
ag2
(g4
S'D\x02'
tRp188
ag2
(g4
S'G"'
tRp189
ag2
(g4
S'JB'
tRp190
ag2
(g4
S'Mb'
tRp191
ag2
(g4
S'P\x82'
tRp192
ag2
(g4
S'S\xa2'
tRp193
ag2
(g4
S'V\xc2'
tRp194
ag2
(g4
S'Y\xe2'
tRp195
ag2
(g4
S']\x02'
tRp196
ag2
(g4
S'`"'
tRp197
ag2
(g4
S'cB'
tRp198
ag2
(g4
S'fb'
tRp199
ag2
(g4
S'i\x82'
tRp200
ag2
(g4
S'l\xa2'
tRp201
ag2
(g4
S'o\xc2'
tRp202
ag2
(g4
S'r\xe2'
tRp203
ag2
(g4
S'v\x02'
tRp204
ag2
(g4
S'y"'
tRp205
ag2
(g4
S'|B'
tRp206
ag2
(g4
S'\x7fb'
tRp207
ag2
(g4
S'\x82\x82'
tRp208
ag2
(g4
S'\x86\xa2'
tRp209
ag2
(g4
S'\x89\xc2'
tRp210
ag2
(g4
S'\x8c\xe2'
tRp211
ag2
(g4
S'\x90\x02'
tRp212
ag2
(g4
S'\x93"'
tRp213
ag2
(g4
S'\x96B'
tRp214
ag2
(g4
S'\x99b'
tRp215
ag2
(g4
S'\x9c\x82'
tRp216
ag2
(g4
S'\x9f\xa2'
tRp217
ag2
(g4
S'\xa2\xc2'
tRp218
ag2
(g4
S'\xa5\xe2'
tRp219
ag2
(g4
S'\xa9\x02'
tRp220
ag2
(g4
S'\xac"'
tRp221
ag2
(g4
S'\xafB'
tRp222
ag2
(g4
S'\xb2b'
tRp223
ag2
(g4
S'\xb5\x82'
tRp224
ag2
(g4
S'\xb8\xa2'
tRp225
ag2
(g4
S'\xbb\xc2'
tRp226
ag2
(g4
S'\xbe\xe2'
tRp227
ag2
(g4
S'\xc2\x02'
tRp228
ag2
(g4
S'\xc5"'
tRp229
ag2
(g4
S'\xc8B'
tRp230
ag2
(g4
S'\xcbb'
tRp231
ag2
(g4
S'\xce\x82'
tRp232
ag2
(g4
S'\xd1\xa2'
tRp233
ag2
(g4
S'\xd4\xc2'
tRp234
ag2
(g4
S'\xd7\xe2'
tRp235
ag2
(g4
S'\xdb\x02'
tRp236
ag2
(g4
S'\xde"'
tRp237
ag2
(g4
S'\xe1B'
tRp238
ag2
(g4
S'\xe4b'
tRp239
ag2
(g4
S'\xe7\x82'
tRp240
ag2
(g4
S'\xea\xa2'
tRp241
ag2
(g4
S'\xed\xc2'
tRp242
ag2
(g4
S'\xf0\xe2'
tRp243
ag2
(g4
S'\xf4\x02'
tRp244
ag2
(g4
S'\xf7"'
tRp245
ag2
(g4
S'\xfbB'
tRp246
ag2
(g4
S'\xfeb'
tRp247
ag2
(g4
S'\x01\x83'
tRp248
ag2
(g4
S'\x04\xa3'
tRp249
ag2
(g4
S'\x07\xc3'
tRp250
ag2
(g4
S'\n\xe3'
tRp251
ag2
(g4
S'\x0e\x03'
tRp252
ag2
(g4
S'\x11#'
tRp253
ag2
(g4
S'\x14C'
tRp254
ag2
(g4
S'\x17c'
tRp255
ag2
(g4
S'\x1a\x83'
tRp256
ag2
(g4
S'\x1d\xa3'
tRp257
ag2
(g4
S' \xc3'
tRp258
ag2
(g4
S'#\xe3'
tRp259
ag2
(g4
S"'\x03"
tRp260
ag2
(g4
S'*#'
tRp261
ag2
(g4
S'-C'
tRp262
ag2
(g4
S'0c'
tRp263
ag2
(g4
S'3\x83'
tRp264
ag2
(g4
S'6\xa3'
tRp265
ag2
(g4
S'9\xc3'
tRp266
ag2
(g4
S'<\xe3'
tRp267
ag2
(g4
S'@\x03'
tRp268
ag2
(g4
S'C#'
tRp269
ag2
(g4
S'FC'
tRp270
ag2
(g4
S'Ic'
tRp271
ag2
(g4
S'L\x83'
tRp272
ag2
(g4
S'O\xa3'
tRp273
ag2
(g4
S'R\xc3'
tRp274
ag2
(g4
S'U\xe3'
tRp275
ag2
(g4
S'Y\x03'
tRp276
ag2
(g4
S'\\#'
tRp277
ag2
(g4
S'_C'
tRp278
ag2
(g4
S'bc'
tRp279
ag2
(g4
S'e\x83'
tRp280
ag2
(g4
S'h\xa3'
tRp281
ag2
(g4
S'k\xc3'
tRp282
ag2
(g4
S'o\xe3'
tRp283
ag2
(g4
S's\x03'
tRp284
ag2
(g4
S'v#'
tRp285
ag2
(g4
S'yC'
tRp286
ag2
(g4
S'|c'
tRp287
ag2
(g4
S'\x7f\x83'
tRp288
ag2
(g4
S'\x82\xa3'
tRp289
ag2
(g4
S'\x85\xc3'
tRp290
ag2
(g4
S'\x88\xe3'
tRp291
ag2
(g4
S'\x8c\x03'
tRp292
ag2
(g4
S'\x8f#'
tRp293
ag2
(g4
S'\x92C'
tRp294
ag2
(g4
S'\x95c'
tRp295
ag2
(g4
S'\x98\x83'
tRp296
ag2
(g4
S'\x9b\xa3'
tRp297
ag2
(g4
S'\x9e\xc3'
tRp298
ag2
(g4
S'\xa1\xe3'
tRp299
ag2
(g4
S'\xa5\x03'
tRp300
ag2
(g4
S'\xa8#'
tRp301
ag2
(g4
S'\xabC'
tRp302
ag2
(g4
S'\xaec'
tRp303
ag2
(g4
S'\xb1\x83'
tRp304
ag2
(g4
S'\xb4\xa3'
tRp305
ag2
(g4
S'\xb7\xc3'
tRp306
ag2
(g4
S'\xba\xe3'
tRp307
ag2
(g4
S'\xbe\x03'
tRp308
ag2
(g4
S'\xc1#'
tRp309
ag2
(g4
S'\xc4C'
tRp310
ag2
(g4
S'\xc7c'
tRp311
ag2
(g4
S'\xca\x83'
tRp312
ag2
(g4
S'\xcd\xa3'
tRp313
ag2
(g4
S'\xd0\xc3'
tRp314
ag2
(g4
S'\xd3\xe3'
tRp315
ag2
(g4
S'\xd7\x03'
tRp316
ag2
(g4
S'\xda#'
tRp317
ag2
(g4
S'\xddC'
tRp318
ag2
(g4
S'\xe0c'
tRp319
ag2
(g4
S'\xe4\x83'
tRp320
ag2
(g4
S'\xe7\xa3'
tRp321
ag2
(g4
S'\xea\xc3'
tRp322
ag2
(g4
S'\xed\xe3'
tRp323
ag2
(g4
S'\xf1\x03'
tRp324
ag2
(g4
S'\xf4#'
tRp325
ag2
(g4
S'\xf7C'
tRp326
ag2
(g4
S'\xfac'
tRp327
ag2
(g4
S'\xfd\x83'
tRp328
ag2
(g4
S'\x00\xa4'
tRp329
ag2
(g4
S'\x03\xc4'
tRp330
ag2
(g4
S'\x06\xe4'
tRp331
ag2
(g4
S'\n\x04'
tRp332
ag2
(g4
S'\r$'
tRp333
ag2
(g4
S'\x10D'
tRp334
ag2
(g4
S'\x13d'
tRp335
ag2
(g4
S'\x16\x84'
tRp336
ag2
(g4
S'\x19\xa4'
tRp337
ag2
(g4
S'\x1c\xc4'
tRp338
ag2
(g4
S'\x1f\xe4'
tRp339
ag2
(g4
S'#\x04'
tRp340
ag2
(g4
S'&$'
tRp341
ag2
(g4
S')D'
tRp342
ag2
(g4
S',d'
tRp343
ag2
(g4
S'/\x84'
tRp344
ag2
(g4
S'2\xa4'
tRp345
ag2
(g4
S'5\xc4'
tRp346
ag2
(g4
S'8\xe4'
tRp347
ag2
(g4
S'<\x04'
tRp348
ag2
(g4
S'?$'
tRp349
ag2
(g4
S'BD'
tRp350
ag2
(g4
S'Ed'
tRp351
ag2
(g4
S'H\x84'
tRp352
ag2
(g4
S'K\xa4'
tRp353
ag2
(g4
S'N\xc4'
tRp354
ag2
(g4
S'Q\xe4'
tRp355
ag2
(g4
S'U\x04'
tRp356
ag2
(g4
S'Y$'
tRp357
ag2
(g4
S'\\D'
tRp358
ag2
(g4
S'_d'
tRp359
ag2
(g4
S'b\x84'
tRp360
ag2
(g4
S'e\xa4'
tRp361
ag2
(g4
S'h\xc4'
tRp362
ag2
(g4
S'k\xe4'
tRp363
ag2
(g4
S'o\x04'
tRp364
ag2
(g4
S'r$'
tRp365
ag2
(g4
S'uD'
tRp366
ag2
(g4
S'xd'
tRp367
ag2
(g4
S'{\x84'
tRp368
ag2
(g4
S'~\xa4'
tRp369
ag2
(g4
S'\x81\xc4'
tRp370
ag2
(g4
S'\x84\xe4'
tRp371
ag2
(g4
S'\x88\x04'
tRp372
ag2
(g4
S'\x8b$'
tRp373
ag2
(g4
S'\x8eD'
tRp374
ag2
(g4
S'\x91d'
tRp375
ag2
(g4
S'\x94\x84'
tRp376
ag2
(g4
S'\x97\xa4'
tRp377
ag2
(g4
S'\x9a\xc4'
tRp378
ag2
(g4
S'\x9d\xe4'
tRp379
ag2
(g4
S'\xa1\x04'
tRp380
ag2
(g4
S'\xa4$'
tRp381
ag2
(g4
S'\xa7D'
tRp382
ag2
(g4
S'\xaad'
tRp383
ag2
(g4
S'\xad\x84'
tRp384
ag2
(g4
S'\xb0\xa4'
tRp385
ag2
(g4
S'\xb3\xc4'
tRp386
ag2
(g4
S'\xb6\xe4'
tRp387
ag2
(g4
S'\xba\x04'
tRp388
ag2
(g4
S'\xbd$'
tRp389
ag2
(g4
S'\xc0D'
tRp390
ag2
(g4
S'\xc3d'
tRp391
ag2
(g4
S'\xc6\x84'
tRp392
ag2
(g4
S'\xc9\xa4'
tRp393
ag2
(g4
S'\xcd\xc4'
tRp394
ag2
(g4
S'\xd0\xe4'
tRp395
ag2
(g4
S'\xd4\x04'
tRp396
ag2
(g4
S'\xd7$'
tRp397
ag2
(g4
S'\xdaD'
tRp398
ag2
(g4
S'\xddd'
tRp399
ag2
(g4
S'\xe0\x84'
tRp400
ag2
(g4
S'\xe3\xa4'
tRp401
ag2
(g4
S'\xe6\xc4'
tRp402
ag2
(g4
S'\xe9\xe4'
tRp403
ag2
(g4
S'\xed\x04'
tRp404
ag2
(g4
S'\xf0$'
tRp405
ag2
(g4
S'\xf3D'
tRp406
ag2
(g4
S'\xf6d'
tRp407
ag2
(g4
S'\xf9\x84'
tRp408
ag2
(g4
S'\xfc\xa4'
tRp409
ag2
(g4
S'\xff\xc4'
tRp410
ag2
(g4
S'\x02\xe5'
tRp411
ag2
(g4
S'\x06\x05'
tRp412
ag2
(g4
S'\t%'
tRp413
ag2
(g4
S'\x0cE'
tRp414
ag2
(g4
S'\x0fe'
tRp415
ag2
(g4
S'\x12\x85'
tRp416
ag2
(g4
S'\x15\xa5'
tRp417
ag2
(g4
S'\x18\xc5'
tRp418
ag2
(g4
S'\x1b\xe5'
tRp419
ag2
(g4
S'\x1f\x05'
tRp420
ag2
(g4
S'"%'
tRp421
ag2
(g4
S'%E'
tRp422
ag2
(g4
S'(e'
tRp423
ag2
(g4
S'+\x85'
tRp424
ag2
(g4
S'.\xa5'
tRp425
ag2
(g4
S'1\xc5'
tRp426
ag2
(g4
S'4\xe5'
tRp427
ag2
(g4
S'8\x05'
tRp428
ag2
(g4
S';%'
tRp429
ag2
(g4
S'>E'
tRp430
ag2
(g4
S'Be'
tRp431
ag2
(g4
S'E\x85'
tRp432
ag2
(g4
S'H\xa5'
tRp433
ag2
(g4
S'K\xc5'
tRp434
ag2
(g4
S'N\xe5'
tRp435
ag2
(g4
S'R\x05'
tRp436
ag2
(g4
S'U%'
tRp437
ag2
(g4
S'XE'
tRp438
ag2
(g4
S'[e'
tRp439
ag2
(g4
S'^\x85'
tRp440
ag2
(g4
S'a\xa5'
tRp441
ag2
(g4
S'd\xc5'
tRp442
ag2
(g4
S'g\xe5'
tRp443
ag2
(g4
S'k\x05'
tRp444
ag2
(g4
S'n%'
tRp445
ag2
(g4
S'qE'
tRp446
ag2
(g4
S'te'
tRp447
ag2
(g4
S'w\x85'
tRp448
ag2
(g4
S'z\xa5'
tRp449
ag2
(g4
S'}\xc5'
tRp450
ag2
(g4
S'\x80\xe5'
tRp451
ag2
(g4
S'\x84\x05'
tRp452
ag2
(g4
S'\x87%'
tRp453
ag2
(g4
S'\x8aE'
tRp454
ag2
(g4
S'\x8de'
tRp455
ag2
(g4
S'\x90\x85'
tRp456
ag2
(g4
S'\x93\xa5'
tRp457
ag2
(g4
S'\x96\xc5'
tRp458
ag2
(g4
S'\x99\xe5'
tRp459
ag2
(g4
S'\x9d\x05'
tRp460
ag2
(g4
S'\xa0%'
tRp461
ag2
(g4
S'\xa3E'
tRp462
ag2
(g4
S'\xa6e'
tRp463
ag2
(g4
S'\xa9\x85'
tRp464
ag2
(g4
S'\xac\xa5'
tRp465
ag2
(g4
S'\xaf\xc5'
tRp466
ag2
(g4
S'\xb2\xe5'
tRp467
ag2
(g4
S'\xb6\x05'
tRp468
ag2
(g4
S'\xba%'
tRp469
ag2
(g4
S'\xbdE'
tRp470
ag2
(g4
S'\xc0e'
tRp471
ag2
(g4
S'\xc3\x85'
tRp472
ag2
(g4
S'\xc6\xa5'
tRp473
ag2
(g4
S'\xc9\xc5'
tRp474
ag2
(g4
S'\xcc\xe5'
tRp475
ag2
(g4
S'\xd0\x05'
tRp476
ag2
(g4
S'\xd3%'
tRp477
ag2
(g4
S'\xd6E'
tRp478
ag2
(g4
S'\xd9e'
tRp479
ag2
(g4
S'\xdc\x85'
tRp480
ag2
(g4
S'\xdf\xa5'
tRp481
ag2
(g4
S'\xe2\xc5'
tRp482
ag2
(g4
S'\xe5\xe5'
tRp483
ag2
(g4
S'\xe9\x05'
tRp484
ag2
(g4
S'\xec%'
tRp485
ag2
(g4
S'\xefE'
tRp486
ag2
(g4
S'\xf2e'
tRp487
ag2
(g4
S'\xf5\x85'
tRp488
ag2
(g4
S'\xf8\xa5'
tRp489
ag2
(g4
S'\xfb\xc5'
tRp490
ag2
(g4
S'\xfe\xe5'
tRp491
ag2
(g4
S'\x02\x06'
tRp492
ag2
(g4
S'\x05&'
tRp493
ag2
(g4
S'\x08F'
tRp494
ag2
(g4
S'\x0bf'
tRp495
ag2
(g4
S'\x0e\x86'
tRp496
ag2
(g4
S'\x11\xa6'
tRp497
ag2
(g4
S'\x14\xc6'
tRp498
ag2
(g4
S'\x17\xe6'
tRp499
ag2
(g4
S'\x1b\x06'
tRp500
ag2
(g4
S'\x1e&'
tRp501
ag2
(g4
S'!F'
tRp502
ag2
(g4
S'$f'
tRp503
ag2
(g4
S"'\x86"
tRp504
ag2
(g4
S'*\xa6'
tRp505
ag2
(g4
S'.\xc6'
tRp506
ag2
(g4
S'1\xe6'
tRp507
ag2
(g4
S'5\x06'
tRp508
ag2
(g4
S'8&'
tRp509
ag2
(g4
S';F'
tRp510
ag2
(g4
S'>f'
tRp511
ag2
(g4
S'A\x86'
tRp512
ag2
(g4
S'D\xa6'
tRp513
ag2
(g4
S'G\xc6'
tRp514
ag2
(g4
S'J\xe6'
tRp515
ag2
(g4
S'N\x06'
tRp516
ag2
(g4
S'Q&'
tRp517
ag2
(g4
S'TF'
tRp518
ag2
(g4
S'Wf'
tRp519
ag2
(g4
S'Z\x86'
tRp520
ag2
(g4
S']\xa6'
tRp521
ag2
(g4
S'`\xc6'
tRp522
ag2
(g4
S'c\xe6'
tRp523
ag2
(g4
S'g\x06'
tRp524
ag2
(g4
S'j&'
tRp525
ag2
(g4
S'mF'
tRp526
ag2
(g4
S'pf'
tRp527
ag2
(g4
S's\x86'
tRp528
ag2
(g4
S'v\xa6'
tRp529
ag2
(g4
S'y\xc6'
tRp530
ag2
(g4
S'|\xe6'
tRp531
ag2
(g4
S'\x80\x06'
tRp532
ag2
(g4
S'\x83&'
tRp533
ag2
(g4
S'\x86F'
tRp534
ag2
(g4
S'\x89f'
tRp535
ag2
(g4
S'\x8c\x86'
tRp536
ag2
(g4
S'\x8f\xa6'
tRp537
ag2
(g4
S'\x92\xc6'
tRp538
ag2
(g4
S'\x95\xe6'
tRp539
ag2
(g4
S'\x99\x06'
tRp540
ag2
(g4
S'\x9c&'
tRp541
ag2
(g4
S'\x9fF'
tRp542
ag2
(g4
S'\xa3f'
tRp543
ag2
(g4
S'\xa6\x86'
tRp544
ag2
(g4
S'\xa9\xa6'
tRp545
ag2
(g4
S'\xac\xc6'
tRp546
ag2
(g4
S'\xaf\xe6'
tRp547
ag2
(g4
S'\xb3\x06'
tRp548
ag2
(g4
S'\xb6&'
tRp549
ag2
(g4
S'\xb9F'
tRp550
ag2
(g4
S'\xbcf'
tRp551
ag2
(g4
S'\xbf\x86'
tRp552
ag2
(g4
S'\xc2\xa6'
tRp553
ag2
(g4
S'\xc5\xc6'
tRp554
ag2
(g4
S'\xc8\xe6'
tRp555
ag2
(g4
S'\xcc\x06'
tRp556
ag2
(g4
S'\xcf&'
tRp557
ag2
(g4
S'\xd2F'
tRp558
ag2
(g4
S'\xd5f'
tRp559
ag2
(g4
S'\xd8\x86'
tRp560
ag2
(g4
S'\xdb\xa6'
tRp561
ag2
(g4
S'\xde\xc6'
tRp562
ag2
(g4
S'\xe1\xe6'
tRp563
ag2
(g4
S'\xe5\x06'
tRp564
ag2
(g4
S'\xe8&'
tRp565
ag2
(g4
S'\xebF'
tRp566
ag2
(g4
S'\xeef'
tRp567
ag2
(g4
S'\xf1\x86'
tRp568
ag2
(g4
S'\xf4\xa6'
tRp569
ag2
(g4
S'\xf7\xc6'
tRp570
ag2
(g4
S'\xfa\xe6'
tRp571
ag2
(g4
S'\xfe\x06'
tRp572
ag2
(g4
S"\x01'"
tRp573
ag2
(g4
S'\x04G'
tRp574
ag2
(g4
S'\x07g'
tRp575
ag2
(g4
S'\n\x87'
tRp576
ag2
(g4
S'\r\xa7'
tRp577
ag2
(g4
S'\x10\xc7'
tRp578
ag2
(g4
S'\x13\xe7'
tRp579
ag2
(g4
S'\x18\x07'
tRp580
ag2
(g4
S"\x1b'"
tRp581
ag2
(g4
S'\x1eG'
tRp582
ag2
(g4
S'!g'
tRp583
ag2
(g4
S'$\x87'
tRp584
ag2
(g4
S"'\xa7"
tRp585
ag2
(g4
S'*\xc7'
tRp586
ag2
(g4
S'-\xe7'
tRp587
ag2
(g4
S'1\x07'
tRp588
ag2
(g4
S"4'"
tRp589
ag2
(g4
S'7G'
tRp590
ag2
(g4
S':g'
tRp591
ag2
(g4
S'=\x87'
tRp592
ag2
(g4
S'@\xa7'
tRp593
ag2
(g4
S'C\xc7'
tRp594
ag2
(g4
S'F\xe7'
tRp595
ag2
(g4
S'J\x07'
tRp596
ag2
(g4
S"M'"
tRp597
ag2
(g4
S'PG'
tRp598
ag2
(g4
S'Sg'
tRp599
ag2
(g4
S'V\x87'
tRp600
ag2
(g4
S'Y\xa7'
tRp601
ag2
(g4
S'\\\xc7'
tRp602
ag2
(g4
S'_\xe7'
tRp603
ag2
(g4
S'c\x07'
tRp604
ag2
(g4
S"f'"
tRp605
ag2
(g4
S'iG'
tRp606
ag2
(g4
S'lg'
tRp607
ag2
(g4
S'o\x87'
tRp608
ag2
(g4
S'r\xa7'
tRp609
ag2
(g4
S'u\xc7'
tRp610
ag2
(g4
S'x\xe7'
tRp611
ag2
(g4
S'|\x07'
tRp612
ag2
(g4
S"\x7f'"
tRp613
ag2
(g4
S'\x82G'
tRp614
ag2
(g4
S'\x85g'
tRp615
ag2
(g4
S'\x88\x87'
tRp616
ag2
(g4
S'\x8c\xa7'
tRp617
ag2
(g4
S'\x8f\xc7'
tRp618
ag2
(g4
S'\x92\xe7'
tRp619
ag2
(g4
S'\x96\x07'
tRp620
ag2
(g4
S"\x99'"
tRp621
ag2
(g4
S'\x9cG'
tRp622
ag2
(g4
S'\x9fg'
tRp623
ag2
(g4
S'\xa2\x87'
tRp624
ag2
(g4
S'\xa5\xa7'
tRp625
ag2
(g4
S'\xa8\xc7'
tRp626
ag2
(g4
S'\xab\xe7'
tRp627
ag2
(g4
S'\xaf\x07'
tRp628
ag2
(g4
S"\xb2'"
tRp629
ag2
(g4
S'\xb5G'
tRp630
ag2
(g4
S'\xb8g'
tRp631
ag2
(g4
S'\xbb\x87'
tRp632
ag2
(g4
S'\xbe\xa7'
tRp633
ag2
(g4
S'\xc1\xc7'
tRp634
ag2
(g4
S'\xc4\xe7'
tRp635
ag2
(g4
S'\xc8\x07'
tRp636
ag2
(g4
S"\xcb'"
tRp637
ag2
(g4
S'\xceG'
tRp638
ag2
(g4
S'\xd1g'
tRp639
ag2
(g4
S'\xd4\x87'
tRp640
ag2
(g4
S'\xd7\xa7'
tRp641
ag2
(g4
S'\xda\xc7'
tRp642
ag2
(g4
S'\xdd\xe7'
tRp643
ag2
(g4
S'\xe1\x07'
tRp644
ag2
(g4
S"\xe4'"
tRp645
ag2
(g4
S'\xe7G'
tRp646
ag2
(g4
S'\xeag'
tRp647
ag2
(g4
S'\xed\x87'
tRp648
ag2
(g4
S'\xf0\xa7'
tRp649
ag2
(g4
S'\xf3\xc7'
tRp650
ag2
(g4
S'\xf6\xe7'
tRp651
ag2
(g4
S'\xfa\x07'
tRp652
ag2
(g4
S"\xfd'"
tRp653
ag2
(g4
S'\x01H'
tRp654
ag2
(g4
S'\x04h'
tRp655
ag2
(g4
S'\x07\x88'
tRp656
ag2
(g4
S'\n\xa8'
tRp657
ag2
(g4
S'\r\xc8'
tRp658
ag2
(g4
S'\x10\xe8'
tRp659
ag2
(g4
S'\x14\x08'
tRp660
ag2
(g4
S'\x17('
tRp661
ag2
(g4
S'\x1aH'
tRp662
ag2
(g4
S'\x1dh'
tRp663
ag2
(g4
S' \x88'
tRp664
ag2
(g4
S'#\xa8'
tRp665
ag2
(g4
S'&\xc8'
tRp666
ag2
(g4
S')\xe8'
tRp667
ag2
(g4
S'-\x08'
tRp668
ag2
(g4
S'0('
tRp669
ag2
(g4
S'3H'
tRp670
ag2
(g4
S'6h'
tRp671
ag2
(g4
S'9\x88'
tRp672
ag2
(g4
S'<\xa8'
tRp673
ag2
(g4
S'?\xc8'
tRp674
ag2
(g4
S'B\xe8'
tRp675
ag2
(g4
S'F\x08'
tRp676
ag2
(g4
S'I('
tRp677
ag2
(g4
S'LH'
tRp678
ag2
(g4
S'Oh'
tRp679
ag2
(g4
S'R\x88'
tRp680
ag2
(g4
S'U\xa8'
tRp681
ag2
(g4
S'X\xc8'
tRp682
ag2
(g4
S'[\xe8'
tRp683
ag2
(g4
S'_\x08'
tRp684
ag2
(g4
S'b('
tRp685
ag2
(g4
S'eH'
tRp686
ag2
(g4
S'hh'
tRp687
ag2
(g4
S'k\x88'
tRp688
ag2
(g4
S'n\xa8'
tRp689
ag2
(g4
S'q\xc8'
tRp690
ag2
(g4
S'u\xe8'
tRp691
ag2
(g4
S'y\x08'
tRp692
ag2
(g4
S'|('
tRp693
ag2
(g4
S'\x7fH'
tRp694
ag2
(g4
S'\x82h'
tRp695
ag2
(g4
S'\x85\x88'
tRp696
ag2
(g4
S'\x88\xa8'
tRp697
ag2
(g4
S'\x8b\xc8'
tRp698
ag2
(g4
S'\x8e\xe8'
tRp699
ag2
(g4
S'\x92\x08'
tRp700
ag2
(g4
S'\x95('
tRp701
ag2
(g4
S'\x98H'
tRp702
ag2
(g4
S'\x9bh'
tRp703
ag2
(g4
S'\x9e\x88'
tRp704
ag2
(g4
S'\xa1\xa8'
tRp705
ag2
(g4
S'\xa4\xc8'
tRp706
ag2
(g4
S'\xa7\xe8'
tRp707
ag2
(g4
S'\xab\x08'
tRp708
ag2
(g4
S'\xae('
tRp709
ag2
(g4
S'\xb1H'
tRp710
ag2
(g4
S'\xb4h'
tRp711
ag2
(g4
S'\xb7\x88'
tRp712
ag2
(g4
S'\xba\xa8'
tRp713
ag2
(g4
S'\xbd\xc8'
tRp714
ag2
(g4
S'\xc0\xe8'
tRp715
ag2
(g4
S'\xc4\x08'
tRp716
ag2
(g4
S'\xc7('
tRp717
ag2
(g4
S'\xcaH'
tRp718
ag2
(g4
S'\xcdh'
tRp719
ag2
(g4
S'\xd0\x88'
tRp720
ag2
(g4
S'\xd3\xa8'
tRp721
ag2
(g4
S'\xd6\xc8'
tRp722
ag2
(g4
S'\xd9\xe8'
tRp723
ag2
(g4
S'\xdd\x08'
tRp724
ag2
(g4
S'\xe0('
tRp725
ag2
(g4
S'\xe3H'
tRp726
ag2
(g4
S'\xe6h'
tRp727
ag2
(g4
S'\xe9\x88'
tRp728
ag2
(g4
S'\xed\xa8'
tRp729
ag2
(g4
S'\xf0\xc8'
tRp730
ag2
(g4
S'\xf3\xe8'
tRp731
ag2
(g4
S'\xf7\x08'
tRp732
ag2
(g4
S'\xfa('
tRp733
ag2
(g4
S'\xfdH'
tRp734
ag2
(g4
S'\x00i'
tRp735
ag2
(g4
S'\x03\x89'
tRp736
ag2
(g4
S'\x06\xa9'
tRp737
ag2
(g4
S'\t\xc9'
tRp738
ag2
(g4
S'\x0c\xe9'
tRp739
ag2
(g4
S'\x10\t'
tRp740
ag2
(g4
S'\x13)'
tRp741
ag2
(g4
S'\x16I'
tRp742
ag2
(g4
S'\x19i'
tRp743
ag2
(g4
S'\x1c\x89'
tRp744
ag2
(g4
S'\x1f\xa9'
tRp745
ag2
(g4
S'"\xc9'
tRp746
ag2
(g4
S'%\xe9'
tRp747
ag2
(g4
S')\t'
tRp748
ag2
(g4
S',)'
tRp749
ag2
(g4
S'/I'
tRp750
ag2
(g4
S'2i'
tRp751
ag2
(g4
S'5\x89'
tRp752
ag2
(g4
S'8\xa9'
tRp753
ag2
(g4
S';\xc9'
tRp754
ag2
(g4
S'>\xe9'
tRp755
ag2
(g4
S'B\t'
tRp756
ag2
(g4
S'E)'
tRp757
ag2
(g4
S'HI'
tRp758
ag2
(g4
S'Ki'
tRp759
ag2
(g4
S'N\x89'
tRp760
ag2
(g4
S'Q\xa9'
tRp761
ag2
(g4
S'T\xc9'
tRp762
ag2
(g4
S'W\xe9'
tRp763
ag2
(g4
S'[\t'
tRp764
ag2
(g4
S'^)'
tRp765
ag2
(g4
S'bI'
tRp766
ag2
(g4
S'ei'
tRp767
ag2
(g4
S'h\x89'
tRp768
ag2
(g4
S'k\xa9'
tRp769
ag2
(g4
S'n\xc9'
tRp770
ag2
(g4
S'q\xe9'
tRp771
ag2
(g4
S'u\t'
tRp772
ag2
(g4
S'x)'
tRp773
ag2
(g4
S'{I'
tRp774
ag2
(g4
S'~i'
tRp775
ag2
(g4
S'\x81\x89'
tRp776
ag2
(g4
S'\x84\xa9'
tRp777
ag2
(g4
S'\x87\xc9'
tRp778
ag2
(g4
S'\x8a\xe9'
tRp779
ag2
(g4
S'\x8e\t'
tRp780
ag2
(g4
S'\x91)'
tRp781
ag2
(g4
S'\x94I'
tRp782
ag2
(g4
S'\x97i'
tRp783
ag2
(g4
S'\x9a\x89'
tRp784
ag2
(g4
S'\x9d\xa9'
tRp785
ag2
(g4
S'\xa0\xc9'
tRp786
ag2
(g4
S'\xa3\xe9'
tRp787
ag2
(g4
S'\xa7\t'
tRp788
ag2
(g4
S'\xaa)'
tRp789
ag2
(g4
S'\xadI'
tRp790
ag2
(g4
S'\xb0i'
tRp791
ag2
(g4
S'\xb3\x89'
tRp792
ag2
(g4
S'\xb6\xa9'
tRp793
ag2
(g4
S'\xb9\xc9'
tRp794
ag2
(g4
S'\xbc\xe9'
tRp795
ag2
(g4
S'\xc0\t'
tRp796
ag2
(g4
S'\xc3)'
tRp797
ag2
(g4
S'\xc6I'
tRp798
ag2
(g4
S'\xc9i'
tRp799
ag2
(g4
S'\xcc\x89'
tRp800
ag2
(g4
S'\xcf\xa9'
tRp801
ag2
(g4
S'\xd2\xc9'
tRp802
ag2
(g4
S'\xd6\xe9'
tRp803
ag2
(g4
S'\xda\t'
tRp804
ag2
(g4
S'\xdd)'
tRp805
ag2
(g4
S'\xe0I'
tRp806
ag2
(g4
S'\xe3i'
tRp807
ag2
(g4
S'\xe6\x89'
tRp808
ag2
(g4
S'\xe9\xa9'
tRp809
ag2
(g4
S'\xec\xc9'
tRp810
ag2
(g4
S'\xef\xe9'
tRp811
ag2
(g4
S'\xf3\t'
tRp812
ag2
(g4
S'\xf6)'
tRp813
ag2
(g4
S'\xf9I'
tRp814
ag2
(g4
S'\xfci'
tRp815
ag2
(g4
S'\xff\x89'
tRp816
ag2
(g4
S'\x02\xaa'
tRp817
ag2
(g4
S'\x05\xca'
tRp818
ag2
(g4
S'\x08\xea'
tRp819
ag2
(g4
S'\x0c\n'
tRp820
ag2
(g4
S'\x0f*'
tRp821
ag2
(g4
S'\x12J'
tRp822
ag2
(g4
S'\x15j'
tRp823
ag2
(g4
S'\x18\x8a'
tRp824
ag2
(g4
S'\x1b\xaa'
tRp825
ag2
(g4
S'\x1e\xca'
tRp826
ag2
(g4
S'!\xea'
tRp827
ag2
(g4
S'%\n'
tRp828
ag2
(g4
S'(*'
tRp829
ag2
(g4
S'+J'
tRp830
ag2
(g4
S'.j'
tRp831
ag2
(g4
S'1\x8a'
tRp832
ag2
(g4
S'4\xaa'
tRp833
ag2
(g4
S'7\xca'
tRp834
ag2
(g4
S':\xea'
tRp835
ag2
(g4
S'>\n'
tRp836
ag2
(g4
S'A*'
tRp837
ag2
(g4
S'DJ'
tRp838
ag2
(g4
S'Gj'
tRp839
ag2
(g4
S'K\x8a'
tRp840
ag2
(g4
S'N\xaa'
tRp841
ag2
(g4
S'Q\xca'
tRp842
ag2
(g4
S'T\xea'
tRp843
ag2
(g4
S'X\n'
tRp844
ag2
(g4
S'[*'
tRp845
ag2
(g4
S'^J'
tRp846
ag2
(g4
S'aj'
tRp847
ag2
(g4
S'd\x8a'
tRp848
ag2
(g4
S'g\xaa'
tRp849
ag2
(g4
S'j\xca'
tRp850
ag2
(g4
S'm\xea'
tRp851
ag2
(g4
S'q\n'
tRp852
ag2
(g4
S't*'
tRp853
ag2
(g4
S'wJ'
tRp854
ag2
(g4
S'zj'
tRp855
ag2
(g4
S'}\x8a'
tRp856
ag2
(g4
S'\x80\xaa'
tRp857
ag2
(g4
S'\x83\xca'
tRp858
ag2
(g4
S'\x86\xea'
tRp859
ag2
(g4
S'\x8a\n'
tRp860
ag2
(g4
S'\x8d*'
tRp861
ag2
(g4
S'\x90J'
tRp862
ag2
(g4
S'\x93j'
tRp863
ag2
(g4
S'\x96\x8a'
tRp864
ag2
(g4
S'\x99\xaa'
tRp865
ag2
(g4
S'\x9c\xca'
tRp866
ag2
(g4
S'\x9f\xea'
tRp867
ag2
(g4
S'\xa3\n'
tRp868
ag2
(g4
S'\xa6*'
tRp869
ag2
(g4
S'\xa9J'
tRp870
ag2
(g4
S'\xacj'
tRp871
ag2
(g4
S'\xaf\x8a'
tRp872
ag2
(g4
S'\xb2\xaa'
tRp873
ag2
(g4
S'\xb5\xca'
tRp874
ag2
(g4
S'\xb8\xea'
tRp875
ag2
(g4
S'\xbc\n'
tRp876
ag2
(g4
S'\xc0*'
tRp877
ag2
(g4
S'\xc3J'
tRp878
ag2
(g4
S'\xc6j'
tRp879
ag2
(g4
S'\xc9\x8a'
tRp880
ag2
(g4
S'\xcc\xaa'
tRp881
ag2
(g4
S'\xcf\xca'
tRp882
ag2
(g4
S'\xd2\xea'
tRp883
ag2
(g4
S'\xd6\n'
tRp884
ag2
(g4
S'\xd9*'
tRp885
ag2
(g4
S'\xdcJ'
tRp886
ag2
(g4
S'\xdfj'
tRp887
ag2
(g4
S'\xe2\x8a'
tRp888
ag2
(g4
S'\xe5\xaa'
tRp889
ag2
(g4
S'\xe8\xca'
tRp890
ag2
(g4
S'\xeb\xea'
tRp891
ag2
(g4
S'\xef\n'
tRp892
ag2
(g4
S'\xf2*'
tRp893
ag2
(g4
S'\xf5J'
tRp894
ag2
(g4
S'\xf8j'
tRp895
ag2
(g4
S'\xfb\x8a'
tRp896
ag2
(g4
S'\xfe\xaa'
tRp897
ag2
(g4
S'\x01\xcb'
tRp898
ag2
(g4
S'\x04\xeb'
tRp899
ag2
(g4
S'\x08\x0b'
tRp900
ag2
(g4
S'\x0b+'
tRp901
ag2
(g4
S'\x0eK'
tRp902
ag2
(g4
S'\x11k'
tRp903
ag2
(g4
S'\x14\x8b'
tRp904
ag2
(g4
S'\x17\xab'
tRp905
ag2
(g4
S'\x1a\xcb'
tRp906
ag2
(g4
S'\x1d\xeb'
tRp907
ag2
(g4
S'!\x0b'
tRp908
ag2
(g4
S'$+'
tRp909
ag2
(g4
S"'K"
tRp910
ag2
(g4
S'*k'
tRp911
ag2
(g4
S'-\x8b'
tRp912
ag2
(g4
S'0\xab'
tRp913
ag2
(g4
S'4\xcb'
tRp914
ag2
(g4
S'7\xeb'
tRp915
ag2
(g4
S';\x0b'
tRp916
ag2
(g4
S'>+'
tRp917
ag2
(g4
S'AK'
tRp918
ag2
(g4
S'Dk'
tRp919
ag2
(g4
S'G\x8b'
tRp920
ag2
(g4
S'J\xab'
tRp921
ag2
(g4
S'M\xcb'
tRp922
ag2
(g4
S'P\xeb'
tRp923
ag2
(g4
S'T\x0b'
tRp924
ag2
(g4
S'W+'
tRp925
ag2
(g4
S'ZK'
tRp926
ag2
(g4
S']k'
tRp927
ag2
(g4
S'`\x8b'
tRp928
ag2
(g4
S'c\xab'
tRp929
ag2
(g4
S'f\xcb'
tRp930
ag2
(g4
S'i\xeb'
tRp931
ag2
(g4
S'm\x0b'
tRp932
ag2
(g4
S'p+'
tRp933
ag2
(g4
S'sK'
tRp934
ag2
(g4
S'vk'
tRp935
ag2
(g4
S'y\x8b'
tRp936
ag2
(g4
S'|\xab'
tRp937
ag2
(g4
S'\x7f\xcb'
tRp938
ag2
(g4
S'\x82\xeb'
tRp939
ag2
(g4
S'\x86\x0b'
tRp940
ag2
(g4
S'\x89+'
tRp941
ag2
(g4
S'\x8cK'
tRp942
ag2
(g4
S'\x8fk'
tRp943
ag2
(g4
S'\x92\x8b'
tRp944
ag2
(g4
S'\x95\xab'
tRp945
ag2
(g4
S'\x98\xcb'
tRp946
ag2
(g4
S'\x9b\xeb'
tRp947
ag2
(g4
S'\x9f\x0b'
tRp948
ag2
(g4
S'\xa2+'
tRp949
ag2
(g4
S'\xa5K'
tRp950
ag2
(g4
S'\xa9k'
tRp951
ag2
(g4
S'\xac\x8b'
tRp952
ag2
(g4
S'\xaf\xab'
tRp953
ag2
(g4
S'\xb2\xcb'
tRp954
ag2
(g4
S'\xb5\xeb'
tRp955
ag2
(g4
S'\xb9\x0b'
tRp956
ag2
(g4
S'\xbc+'
tRp957
ag2
(g4
S'\xbfK'
tRp958
ag2
(g4
S'\xc2k'
tRp959
ag2
(g4
S'\xc5\x8b'
tRp960
ag2
(g4
S'\xc8\xab'
tRp961
ag2
(g4
S'\xcb\xcb'
tRp962
ag2
(g4
S'\xce\xeb'
tRp963
ag2
(g4
S'\xd2\x0b'
tRp964
ag2
(g4
S'\xd5+'
tRp965
ag2
(g4
S'\xd8K'
tRp966
ag2
(g4
S'\xdbk'
tRp967
ag2
(g4
S'\xde\x8b'
tRp968
ag2
(g4
S'\xe1\xab'
tRp969
ag2
(g4
S'\xe4\xcb'
tRp970
ag2
(g4
S'\xe7\xeb'
tRp971
ag2
(g4
S'\xeb\x0b'
tRp972
ag2
(g4
S'\xee+'
tRp973
ag2
(g4
S'\xf1K'
tRp974
ag2
(g4
S'\xf4k'
tRp975
ag2
(g4
S'\xf7\x8b'
tRp976
ag2
(g4
S'\xfa\xab'
tRp977
ag2
(g4
S'\xfd\xcb'
tRp978
ag2
(g4
S'\x00\xec'
tRp979
ag2
(g4
S'\x04\x0c'
tRp980
ag2
(g4
S'\x07,'
tRp981
ag2
(g4
S'\nL'
tRp982
ag2
(g4
S'\rl'
tRp983
ag2
(g4
S'\x10\x8c'
tRp984
ag2
(g4
S'\x13\xac'
tRp985
ag2
(g4
S'\x16\xcc'
tRp986
ag2
(g4
S'\x19\xec'
tRp987
ag2
(g4
S'\x1e\x0c'
tRp988
ag2
(g4
S'!,'
tRp989
ag2
(g4
S'$L'
tRp990
ag2
(g4
S"'l"
tRp991
ag2
(g4
S'*\x8c'
tRp992
ag2
(g4
S'-\xac'
tRp993
ag2
(g4
S'0\xcc'
tRp994
ag2
(g4
S'3\xec'
tRp995
ag2
(g4
S'7\x0c'
tRp996
ag2
(g4
S':,'
tRp997
ag2
(g4
S'=L'
tRp998
ag2
(g4
S'@l'
tRp999
ag2
(g4
S'C\x8c'
tRp1000
ag2
(g4
S'F\xac'
tRp1001
ag2
(g4
S'I\xcc'
tRp1002
ag2
(g4
S'L\xec'
tRp1003
ag2
(g4
S'P\x0c'
tRp1004
ag2
(g4
S'S,'
tRp1005
ag2
(g4
S'VL'
tRp1006
ag2
(g4
S'Yl'
tRp1007
ag2
(g4
S'\\\x8c'
tRp1008
ag2
(g4
S'_\xac'
tRp1009
ag2
(g4
S'b\xcc'
tRp1010
ag2
(g4
S'e\xec'
tRp1011
ag2
(g4
S'i\x0c'
tRp1012
ag2
(g4
S'l,'
tRp1013
ag2
(g4
S'oL'
tRp1014
ag2
(g4
S'rl'
tRp1015
ag2
(g4
S'u\x8c'
tRp1016
ag2
(g4
S'x\xac'
tRp1017
ag2
(g4
S'{\xcc'
tRp1018
ag2
(g4
S'~\xec'
tRp1019
ag2
(g4
S'\x82\x0c'
tRp1020
ag2
(g4
S'\x85,'
tRp1021
ag2
(g4
S'\x88L'
tRp1022
ag2
(g4
S'\x8bl'
tRp1023
ag2
(g4
S'\x8e\x8c'
tRp1024
ag2
(g4
S'\x91\xac'
tRp1025
ag2
(g4
S'\x95\xcc'
tRp1026
ag2
(g4
S'\x98\xec'
tRp1027
ag2
(g4
S'\x9c\x0c'
tRp1028
ag2
(g4
S'\x9f,'
tRp1029
ag2
(g4
S'\xa2L'
tRp1030
ag2
(g4
S'\xa5l'
tRp1031
ag2
(g4
S'\xa8\x8c'
tRp1032
ag2
(g4
S'\xab\xac'
tRp1033
ag2
(g4
S'\xae\xcc'
tRp1034
ag2
(g4
S'\xb1\xec'
tRp1035
ag2
(g4
S'\xb5\x0c'
tRp1036
ag2
(g4
S'\xb8,'
tRp1037
ag2
(g4
S'\xbbL'
tRp1038
ag2
(g4
S'\xbel'
tRp1039
ag2
(g4
S'\xc1\x8c'
tRp1040
ag2
(g4
S'\xc4\xac'
tRp1041
ag2
(g4
S'\xc7\xcc'
tRp1042
ag2
(g4
S'\xca\xec'
tRp1043
ag2
(g4
S'\xce\x0c'
tRp1044
ag2
(g4
S'\xd1,'
tRp1045
ag2
(g4
S'\xd4L'
tRp1046
ag2
(g4
S'\xd7l'
tRp1047
ag2
(g4
S'\xda\x8c'
tRp1048
ag2
(g4
S'\xdd\xac'
tRp1049
ag2
(g4
S'\xe0\xcc'
tRp1050
ag2
(g4
S'\xe3\xec'
tRp1051
ag2
(g4
S'\xe7\x0c'
tRp1052
ag2
(g4
S'\xea,'
tRp1053
ag2
(g4
S'\xedL'
tRp1054
ag2
(g4
S'\xf0l'
tRp1055
ag2
(g4
S'\xf3\x8c'
tRp1056
ag2
(g4
S'\xf6\xac'
tRp1057
ag2
(g4
S'\xf9\xcc'
tRp1058
ag2
(g4
S'\xfc\xec'
tRp1059
ag2
(g4
S'\x00\r'
tRp1060
ag2
(g4
S'\x03-'
tRp1061
ag2
(g4
S'\x06M'
tRp1062
ag2
(g4
S'\nm'
tRp1063
ag2
(g4
S'\r\x8d'
tRp1064
ag2
(g4
S'\x10\xad'
tRp1065
ag2
(g4
S'\x13\xcd'
tRp1066
ag2
(g4
S'\x16\xed'
tRp1067
ag2
(g4
S'\x1a\r'
tRp1068
ag2
(g4
S'\x1d-'
tRp1069
ag2
(g4
S' M'
tRp1070
ag2
(g4
S'#m'
tRp1071
ag2
(g4
S'&\x8d'
tRp1072
ag2
(g4
S')\xad'
tRp1073
ag2
(g4
S',\xcd'
tRp1074
ag2
(g4
S'/\xed'
tRp1075
ag2
(g4
S'3\r'
tRp1076
ag2
(g4
S'6-'
tRp1077
ag2
(g4
S'9M'
tRp1078
ag2
(g4
S'<m'
tRp1079
ag2
(g4
S'?\x8d'
tRp1080
ag2
(g4
S'B\xad'
tRp1081
ag2
(g4
S'E\xcd'
tRp1082
ag2
(g4
S'H\xed'
tRp1083
ag2
(g4
S'L\r'
tRp1084
ag2
(g4
S'O-'
tRp1085
ag2
(g4
S'RM'
tRp1086
ag2
(g4
S'Um'
tRp1087
ag2
(g4
S'X\x8d'
tRp1088
ag2
(g4
S'[\xad'
tRp1089
ag2
(g4
S'^\xcd'
tRp1090
ag2
(g4
S'a\xed'
tRp1091
ag2
(g4
S'e\r'
tRp1092
ag2
(g4
S'h-'
tRp1093
ag2
(g4
S'kM'
tRp1094
ag2
(g4
S'nm'
tRp1095
ag2
(g4
S'q\x8d'
tRp1096
ag2
(g4
S't\xad'
tRp1097
ag2
(g4
S'w\xcd'
tRp1098
ag2
(g4
S'z\xed'
tRp1099
ag2
(g4
S'\x7f\r'
tRp1100
ag2
(g4
S'\x82-'
tRp1101
ag2
(g4
S'\x85M'
tRp1102
ag2
(g4
S'\x88m'
tRp1103
ag2
(g4
S'\x8b\x8d'
tRp1104
ag2
(g4
S'\x8e\xad'
tRp1105
ag2
(g4
S'\x91\xcd'
tRp1106
ag2
(g4
S'\x94\xed'
tRp1107
ag2
(g4
S'\x98\r'
tRp1108
ag2
(g4
S'\x9b-'
tRp1109
ag2
(g4
S'\x9eM'
tRp1110
ag2
(g4
S'\xa1m'
tRp1111
ag2
(g4
S'\xa4\x8d'
tRp1112
ag2
(g4
S'\xa7\xad'
tRp1113
ag2
(g4
S'\xaa\xcd'
tRp1114
ag2
(g4
S'\xad\xed'
tRp1115
ag2
(g4
S'\xb1\r'
tRp1116
ag2
(g4
S'\xb4-'
tRp1117
ag2
(g4
S'\xb7M'
tRp1118
ag2
(g4
S'\xbam'
tRp1119
ag2
(g4
S'\xbd\x8d'
tRp1120
ag2
(g4
S'\xc0\xad'
tRp1121
ag2
(g4
S'\xc3\xcd'
tRp1122
ag2
(g4
S'\xc6\xed'
tRp1123
ag2
(g4
S'\xca\r'
tRp1124
ag2
(g4
S'\xcd-'
tRp1125
ag2
(g4
S'\xd0M'
tRp1126
ag2
(g4
S'\xd3m'
tRp1127
ag2
(g4
S'\xd6\x8d'
tRp1128
ag2
(g4
S'\xd9\xad'
tRp1129
ag2
(g4
S'\xdc\xcd'
tRp1130
ag2
(g4
S'\xdf\xed'
tRp1131
ag2
(g4
S'\xe3\r'
tRp1132
ag2
(g4
S'\xe6-'
tRp1133
ag2
(g4
S'\xe9M'
tRp1134
ag2
(g4
S'\xecm'
tRp1135
ag2
(g4
S'\xef\x8d'
tRp1136
ag2
(g4
S'\xf3\xad'
tRp1137
ag2
(g4
S'\xf6\xcd'
tRp1138
ag2
(g4
S'\xf9\xed'
tRp1139
ag2
(g4
S'\xfd\r'
tRp1140
ag2
(g4
S'\x00.'
tRp1141
ag2
(g4
S'\x03N'
tRp1142
ag2
(g4
S'\x06n'
tRp1143
ag2
(g4
S'\t\x8e'
tRp1144
ag2
(g4
S'\x0c\xae'
tRp1145
ag2
(g4
S'\x0f\xce'
tRp1146
ag2
(g4
S'\x12\xee'
tRp1147
ag2
(g4
S'\x16\x0e'
tRp1148
ag2
(g4
S'\x19.'
tRp1149
ag2
(g4
S'\x1cN'
tRp1150
ag2
(g4
S'\x1fn'
tRp1151
ag2
(g4
S'"\x8e'
tRp1152
ag2
(g4
S'%\xae'
tRp1153
ag2
(g4
S'(\xce'
tRp1154
ag2
(g4
S'+\xee'
tRp1155
ag2
(g4
S'/\x0e'
tRp1156
ag2
(g4
S'2.'
tRp1157
ag2
(g4
S'5N'
tRp1158
ag2
(g4
S'8n'
tRp1159
ag2
(g4
S';\x8e'
tRp1160
ag2
(g4
S'>\xae'
tRp1161
ag2
(g4
S'A\xce'
tRp1162
ag2
(g4
S'D\xee'
tRp1163
ag2
(g4
S'H\x0e'
tRp1164
ag2
(g4
S'K.'
tRp1165
ag2
(g4
S'NN'
tRp1166
ag2
(g4
S'Qn'
tRp1167
ag2
(g4
S'T\x8e'
tRp1168
ag2
(g4
S'W\xae'
tRp1169
ag2
(g4
S'Z\xce'
tRp1170
ag2
(g4
S']\xee'
tRp1171
ag2
(g4
S'a\x0e'
tRp1172
ag2
(g4
S'd.'
tRp1173
ag2
(g4
S'hN'
tRp1174
ag2
(g4
S'kn'
tRp1175
ag2
(g4
S'n\x8e'
tRp1176
ag2
(g4
S'q\xae'
tRp1177
ag2
(g4
S't\xce'
tRp1178
ag2
(g4
S'w\xee'
tRp1179
ag2
(g4
S'{\x0e'
tRp1180
ag2
(g4
S'~.'
tRp1181
ag2
(g4
S'\x81N'
tRp1182
ag2
(g4
S'\x84n'
tRp1183
ag2
(g4
S'\x87\x8e'
tRp1184
ag2
(g4
S'\x8a\xae'
tRp1185
ag2
(g4
S'\x8d\xce'
tRp1186
ag2
(g4
S'\x90\xee'
tRp1187
ag2
(g4
S'\x94\x0e'
tRp1188
ag2
(g4
S'\x97.'
tRp1189
ag2
(g4
S'\x9aN'
tRp1190
ag2
(g4
S'\x9dn'
tRp1191
ag2
(g4
S'\xa0\x8e'
tRp1192
ag2
(g4
S'\xa3\xae'
tRp1193
ag2
(g4
S'\xa6\xce'
tRp1194
ag2
(g4
S'\xa9\xee'
tRp1195
ag2
(g4
S'\xad\x0e'
tRp1196
ag2
(g4
S'\xb0.'
tRp1197
ag2
(g4
S'\xb3N'
tRp1198
ag2
(g4
S'\xb6n'
tRp1199
ag2
(g4
S'\xb9\x8e'
tRp1200
ag2
(g4
S'\xbc\xae'
tRp1201
ag2
(g4
S'\xbf\xce'
tRp1202
ag2
(g4
S'\xc2\xee'
tRp1203
ag2
(g4
S'\xc6\x0e'
tRp1204
ag2
(g4
S'\xc9.'
tRp1205
ag2
(g4
S'\xccN'
tRp1206
ag2
(g4
S'\xcfn'
tRp1207
ag2
(g4
S'\xd2\x8e'
tRp1208
ag2
(g4
S'\xd5\xae'
tRp1209
ag2
(g4
S'\xd8\xce'
tRp1210
ag2
(g4
S'\xdc\xee'
tRp1211
ag2
(g4
S'\xe0\x0e'
tRp1212
ag2
(g4
S'\xe3.'
tRp1213
ag2
(g4
S'\xe6N'
tRp1214
ag2
(g4
S'\xe9n'
tRp1215
ag2
(g4
S'\xec\x8e'
tRp1216
ag2
(g4
S'\xef\xae'
tRp1217
ag2
(g4
S'\xf2\xce'
tRp1218
ag2
(g4
S'\xf5\xee'
tRp1219
ag2
(g4
S'\xf9\x0e'
tRp1220
ag2
(g4
S'\xfc.'
tRp1221
ag2
(g4
S'\xffN'
tRp1222
ag2
(g4
S'\x02o'
tRp1223
ag2
(g4
S'\x05\x8f'
tRp1224
ag2
(g4
S'\x08\xaf'
tRp1225
ag2
(g4
S'\x0b\xcf'
tRp1226
ag2
(g4
S'\x0e\xef'
tRp1227
ag2
(g4
S'\x12\x0f'
tRp1228
ag2
(g4
S'\x15/'
tRp1229
ag2
(g4
S'\x18O'
tRp1230
ag2
(g4
S'\x1bo'
tRp1231
ag2
(g4
S'\x1e\x8f'
tRp1232
ag2
(g4
S'!\xaf'
tRp1233
ag2
(g4
S'$\xcf'
tRp1234
ag2
(g4
S"'\xef"
tRp1235
ag2
(g4
S'+\x0f'
tRp1236
ag2
(g4
S'./'
tRp1237
ag2
(g4
S'1O'
tRp1238
ag2
(g4
S'4o'
tRp1239
ag2
(g4
S'7\x8f'
tRp1240
ag2
(g4
S':\xaf'
tRp1241
ag2
(g4
S'=\xcf'
tRp1242
ag2
(g4
S'@\xef'
tRp1243
ag2
(g4
S'D\x0f'
tRp1244
ag2
(g4
S'G/'
tRp1245
ag2
(g4
S'JO'
tRp1246
ag2
(g4
S'Mo'
tRp1247
ag2
(g4
S'Q\x8f'
tRp1248
ag2
(g4
S'T\xaf'
tRp1249
ag2
(g4
S'W\xcf'
tRp1250
ag2
(g4
S'Z\xef'
tRp1251
ag2
(g4
S'^\x0f'
tRp1252
ag2
(g4
S'a/'
tRp1253
ag2
(g4
S'dO'
tRp1254
ag2
(g4
S'go'
tRp1255
ag2
(g4
S'j\x8f'
tRp1256
ag2
(g4
S'm\xaf'
tRp1257
ag2
(g4
S'p\xcf'
tRp1258
ag2
(g4
S's\xef'
tRp1259
ag2
(g4
S'w\x0f'
tRp1260
ag2
(g4
S'z/'
tRp1261
ag2
(g4
S'}O'
tRp1262
ag2
(g4
S'\x80o'
tRp1263
ag2
(g4
S'\x83\x8f'
tRp1264
ag2
(g4
S'\x86\xaf'
tRp1265
ag2
(g4
S'\x89\xcf'
tRp1266
ag2
(g4
S'\x8c\xef'
tRp1267
ag2
(g4
S'\x90\x0f'
tRp1268
ag2
(g4
S'\x93/'
tRp1269
ag2
(g4
S'\x96O'
tRp1270
ag2
(g4
S'\x99o'
tRp1271
ag2
(g4
S'\x9c\x8f'
tRp1272
ag2
(g4
S'\x9f\xaf'
tRp1273
ag2
(g4
S'\xa2\xcf'
tRp1274
ag2
(g4
S'\xa5\xef'
tRp1275
ag2
(g4
S'\xa9\x0f'
tRp1276
ag2
(g4
S'\xac/'
tRp1277
ag2
(g4
S'\xafO'
tRp1278
ag2
(g4
S'\xb2o'
tRp1279
ag2
(g4
S'\xb5\x8f'
tRp1280
ag2
(g4
S'\xb8\xaf'
tRp1281
ag2
(g4
S'\xbb\xcf'
tRp1282
ag2
(g4
S'\xbe\xef'
tRp1283
ag2
(g4
S'\xc2\x0f'
tRp1284
ag2
(g4
S'\xc6/'
tRp1285
ag2
(g4
S'\xc9O'
tRp1286
ag2
(g4
S'\xcco'
tRp1287
ag2
(g4
S'\xcf\x8f'
tRp1288
ag2
(g4
S'\xd2\xaf'
tRp1289
ag2
(g4
S'\xd5\xcf'
tRp1290
ag2
(g4
S'\xd8\xef'
tRp1291
ag2
(g4
S'\xdc\x0f'
tRp1292
ag2
(g4
S'\xdf/'
tRp1293
ag2
(g4
S'\xe2O'
tRp1294
ag2
(g4
S'\xe5o'
tRp1295
ag2
(g4
S'\xe8\x8f'
tRp1296
ag2
(g4
S'\xeb\xaf'
tRp1297
ag2
(g4
S'\xee\xcf'
tRp1298
ag2
(g4
S'\xf1\xef'
tRp1299
ag2
(g4
S'\xf5\x0f'
tRp1300
ag2
(g4
S'\xf8/'
tRp1301
ag2
(g4
S'\xfbO'
tRp1302
ag2
(g4
S'\xfeo'
tRp1303
ag2
(g4
S'\x01\x90'
tRp1304
ag2
(g4
S'\x04\xb0'
tRp1305
ag2
(g4
S'\x07\xd0'
tRp1306
ag2
(g4
S'\n\xf0'
tRp1307
ag2
(g4
S'\x0e\x10'
tRp1308
ag2
(g4
S'\x110'
tRp1309
ag2
(g4
S'\x14P'
tRp1310
ag2
(g4
S'\x17p'
tRp1311
ag2
(g4
S'\x1a\x90'
tRp1312
ag2
(g4
S'\x1d\xb0'
tRp1313
ag2
(g4
S' \xd0'
tRp1314
ag2
(g4
S'#\xf0'
tRp1315
ag2
(g4
S"'\x10"
tRp1316
ag2
(g4
S'*0'
tRp1317
ag2
(g4
S'-P'
tRp1318
ag2
(g4
S'0p'
tRp1319
ag2
(g4
S'3\x90'
tRp1320
ag2
(g4
S'6\xb0'
tRp1321
ag2
(g4
S'9\xd0'
tRp1322
ag2
(g4
S'=\xf0'
tRp1323
ag2
(g4
S'A\x10'
tRp1324
ag2
(g4
S'D0'
tRp1325
ag2
(g4
S'GP'
tRp1326
ag2
(g4
S'Jp'
tRp1327
ag2
(g4
S'M\x90'
tRp1328
ag2
(g4
S'P\xb0'
tRp1329
ag2
(g4
S'S\xd0'
tRp1330
ag2
(g4
S'V\xf0'
tRp1331
ag2
(g4
S'Z\x10'
tRp1332
ag2
(g4
S']0'
tRp1333
ag2
(g4
S'`P'
tRp1334
ag2
(g4
S'cp'
tRp1335
ag2
(g4
S'f\x90'
tRp1336
ag2
(g4
S'i\xb0'
tRp1337
ag2
(g4
S'l\xd0'
tRp1338
ag2
(g4
S'o\xf0'
tRp1339
ag2
(g4
S's\x10'
tRp1340
ag2
(g4
S'v0'
tRp1341
ag2
(g4
S'yP'
tRp1342
ag2
(g4
S'|p'
tRp1343
ag2
(g4
S'\x7f\x90'
tRp1344
ag2
(g4
S'\x82\xb0'
tRp1345
ag2
(g4
S'\x85\xd0'
tRp1346
ag2
(g4
S'\x88\xf0'
tRp1347
ag2
(g4
S'\x8c\x10'
tRp1348
ag2
(g4
S'\x8f0'
tRp1349
ag2
(g4
S'\x92P'
tRp1350
ag2
(g4
S'\x95p'
tRp1351
ag2
(g4
S'\x98\x90'
tRp1352
ag2
(g4
S'\x9b\xb0'
tRp1353
ag2
(g4
S'\x9e\xd0'
tRp1354
ag2
(g4
S'\xa1\xf0'
tRp1355
ag2
(g4
S'\xa5\x10'
tRp1356
ag2
(g4
S'\xa80'
tRp1357
ag2
(g4
S'\xabP'
tRp1358
ag2
(g4
S'\xaep'
tRp1359
ag2
(g4
S'\xb2\x90'
tRp1360
ag2
(g4
S'\xb5\xb0'
tRp1361
ag2
(g4
S'\xb8\xd0'
tRp1362
ag2
(g4
S'\xbb\xf0'
tRp1363
ag2
(g4
S'\xbf\x10'
tRp1364
ag2
(g4
S'\xc20'
tRp1365
ag2
(g4
S'\xc5P'
tRp1366
ag2
(g4
S'\xc8p'
tRp1367
ag2
(g4
S'\xcb\x90'
tRp1368
ag2
(g4
S'\xce\xb0'
tRp1369
ag2
(g4
S'\xd1\xd0'
tRp1370
ag2
(g4
S'\xd4\xf0'
tRp1371
ag2
(g4
S'\xd8\x10'
tRp1372
ag2
(g4
S'\xdb0'
tRp1373
ag2
(g4
S'\xdeP'
tRp1374
ag2
(g4
S'\xe1p'
tRp1375
ag2
(g4
S'\xe4\x90'
tRp1376
ag2
(g4
S'\xe7\xb0'
tRp1377
ag2
(g4
S'\xea\xd0'
tRp1378
ag2
(g4
S'\xed\xf0'
tRp1379
ag2
(g4
S'\xf1\x10'
tRp1380
ag2
(g4
S'\xf40'
tRp1381
ag2
(g4
S'\xf7P'
tRp1382
ag2
(g4
S'\xfap'
tRp1383
ag2
(g4
S'\xfd\x90'
tRp1384
ag2
(g4
S'\x00\xb1'
tRp1385
ag2
(g4
S'\x03\xd1'
tRp1386
ag2
(g4
S'\x06\xf1'
tRp1387
ag2
(g4
S'\n\x11'
tRp1388
ag2
(g4
S'\r1'
tRp1389
ag2
(g4
S'\x10Q'
tRp1390
ag2
(g4
S'\x13q'
tRp1391
ag2
(g4
S'\x16\x91'
tRp1392
ag2
(g4
S'\x19\xb1'
tRp1393
ag2
(g4
S'\x1c\xd1'
tRp1394
ag2
(g4
S'\x1f\xf1'
tRp1395
ag2
(g4
S'#\x11'
tRp1396
ag2
(g4
S"'1"
tRp1397
ag2
(g4
S'*Q'
tRp1398
ag2
(g4
S'-q'
tRp1399
ag2
(g4
S'0\x91'
tRp1400
ag2
(g4
S'3\xb1'
tRp1401
ag2
(g4
S'6\xd1'
tRp1402
ag2
(g4
S'9\xf1'
tRp1403
ag2
(g4
S'=\x11'
tRp1404
ag2
(g4
S'@1'
tRp1405
ag2
(g4
S'CQ'
tRp1406
ag2
(g4
S'Fq'
tRp1407
ag2
(g4
S'I\x91'
tRp1408
ag2
(g4
S'L\xb1'
tRp1409
ag2
(g4
S'O\xd1'
tRp1410
ag2
(g4
S'R\xf1'
tRp1411
ag2
(g4
S'V\x11'
tRp1412
ag2
(g4
S'Y1'
tRp1413
ag2
(g4
S'\\Q'
tRp1414
ag2
(g4
S'_q'
tRp1415
ag2
(g4
S'b\x91'
tRp1416
ag2
(g4
S'e\xb1'
tRp1417
ag2
(g4
S'h\xd1'
tRp1418
ag2
(g4
S'k\xf1'
tRp1419
ag2
(g4
S'o\x11'
tRp1420
ag2
(g4
S'r1'
tRp1421
ag2
(g4
S'uQ'
tRp1422
ag2
(g4
S'xq'
tRp1423
ag2
(g4
S'{\x91'
tRp1424
ag2
(g4
S'~\xb1'
tRp1425
ag2
(g4
S'\x81\xd1'
tRp1426
ag2
(g4
S'\x84\xf1'
tRp1427
ag2
(g4
S'\x88\x11'
tRp1428
ag2
(g4
S'\x8b1'
tRp1429
ag2
(g4
S'\x8eQ'
tRp1430
ag2
(g4
S'\x91q'
tRp1431
ag2
(g4
S'\x94\x91'
tRp1432
ag2
(g4
S'\x97\xb1'
tRp1433
ag2
(g4
S'\x9b\xd1'
tRp1434
ag2
(g4
S'\x9e\xf1'
tRp1435
ag2
(g4
S'\xa2\x11'
tRp1436
ag2
(g4
S'\xa51'
tRp1437
ag2
(g4
S'\xa8Q'
tRp1438
ag2
(g4
S'\xabq'
tRp1439
ag2
(g4
S'\xae\x91'
tRp1440
ag2
(g4
S'\xb1\xb1'
tRp1441
ag2
(g4
S'\xb4\xd1'
tRp1442
ag2
(g4
S'\xb7\xf1'
tRp1443
ag2
(g4
S'\xbb\x11'
tRp1444
ag2
(g4
S'\xbe1'
tRp1445
ag2
(g4
S'\xc1Q'
tRp1446
ag2
(g4
S'\xc4q'
tRp1447
ag2
(g4
S'\xc7\x91'
tRp1448
ag2
(g4
S'\xca\xb1'
tRp1449
ag2
(g4
S'\xcd\xd1'
tRp1450
ag2
(g4
S'\xd0\xf1'
tRp1451
ag2
(g4
S'\xd4\x11'
tRp1452
ag2
(g4
S'\xd71'
tRp1453
ag2
(g4
S'\xdaQ'
tRp1454
ag2
(g4
S'\xddq'
tRp1455
ag2
(g4
S'\xe0\x91'
tRp1456
ag2
(g4
S'\xe3\xb1'
tRp1457
ag2
(g4
S'\xe6\xd1'
tRp1458
ag2
(g4
S'\xe9\xf1'
tRp1459
ag2
(g4
S'\xed\x11'
tRp1460
ag2
(g4
S'\xf01'
tRp1461
ag2
(g4
S'\xf3Q'
tRp1462
ag2
(g4
S'\xf6q'
tRp1463
ag2
(g4
S'\xf9\x91'
tRp1464
ag2
(g4
S'\xfc\xb1'
tRp1465
ag2
(g4
S'\xff\xd1'
tRp1466
ag2
(g4
S'\x02\xf2'
tRp1467
ag2
(g4
S'\x06\x12'
tRp1468
ag2
(g4
S'\t2'
tRp1469
ag2
(g4
S'\x0cR'
tRp1470
ag2
(g4
S'\x10r'
tRp1471
ag2
(g4
S'\x13\x92'
tRp1472
ag2
(g4
S'\x16\xb2'
tRp1473
ag2
(g4
S'\x19\xd2'
tRp1474
ag2
(g4
S'\x1c\xf2'
tRp1475
ag2
(g4
S' \x12'
tRp1476
ag2
(g4
S'#2'
tRp1477
ag2
(g4
S'&R'
tRp1478
ag2
(g4
S')r'
tRp1479
ag2
(g4
S',\x92'
tRp1480
ag2
(g4
S'/\xb2'
tRp1481
ag2
(g4
S'2\xd2'
tRp1482
ag2
(g4
S'5\xf2'
tRp1483
ag2
(g4
S'9\x12'
tRp1484
ag2
(g4
S'<2'
tRp1485
ag2
(g4
S'?R'
tRp1486
ag2
(g4
S'Br'
tRp1487
ag2
(g4
S'E\x92'
tRp1488
ag2
(g4
S'H\xb2'
tRp1489
ag2
(g4
S'K\xd2'
tRp1490
ag2
(g4
S'N\xf2'
tRp1491
ag2
(g4
S'R\x12'
tRp1492
ag2
(g4
S'U2'
tRp1493
ag2
(g4
S'XR'
tRp1494
ag2
(g4
S'[r'
tRp1495
ag2
(g4
S'^\x92'
tRp1496
ag2
(g4
S'a\xb2'
tRp1497
ag2
(g4
S'd\xd2'
tRp1498
ag2
(g4
S'g\xf2'
tRp1499
ag2
(g4
S'k\x12'
tRp1500
ag2
(g4
S'n2'
tRp1501
ag2
(g4
S'qR'
tRp1502
ag2
(g4
S'tr'
tRp1503
ag2
(g4
S'w\x92'
tRp1504
ag2
(g4
S'z\xb2'
tRp1505
ag2
(g4
S'}\xd2'
tRp1506
ag2
(g4
S'\x80\xf2'
tRp1507
ag2
(g4
S'\x85\x12'
tRp1508
ag2
(g4
S'\x882'
tRp1509
ag2
(g4
S'\x8bR'
tRp1510
ag2
(g4
S'\x8er'
tRp1511
ag2
(g4
S'\x91\x92'
tRp1512
ag2
(g4
S'\x94\xb2'
tRp1513
ag2
(g4
S'\x97\xd2'
tRp1514
ag2
(g4
S'\x9a\xf2'
tRp1515
ag2
(g4
S'\x9e\x12'
tRp1516
ag2
(g4
S'\xa12'
tRp1517
ag2
(g4
S'\xa4R'
tRp1518
ag2
(g4
S'\xa7r'
tRp1519
ag2
(g4
S'\xaa\x92'
tRp1520
ag2
(g4
S'\xad\xb2'
tRp1521
ag2
(g4
S'\xb0\xd2'
tRp1522
ag2
(g4
S'\xb3\xf2'
tRp1523
ag2
(g4
S'\xb7\x12'
tRp1524
ag2
(g4
S'\xba2'
tRp1525
ag2
(g4
S'\xbdR'
tRp1526
ag2
(g4
S'\xc0r'
tRp1527
ag2
(g4
S'\xc3\x92'
tRp1528
ag2
(g4
S'\xc6\xb2'
tRp1529
ag2
(g4
S'\xc9\xd2'
tRp1530
ag2
(g4
S'\xcc\xf2'
tRp1531
ag2
(g4
S'\xd0\x12'
tRp1532
ag2
(g4
S'\xd32'
tRp1533
ag2
(g4
S'\xd6R'
tRp1534
ag2
(g4
S'\xd9r'
tRp1535
ag2
(g4
S'\xdc\x92'
tRp1536
ag2
(g4
S'\xdf\xb2'
tRp1537
ag2
(g4
S'\xe2\xd2'
tRp1538
ag2
(g4
S'\xe5\xf2'
tRp1539
ag2
(g4
S'\xe9\x12'
tRp1540
ag2
(g4
S'\xec2'
tRp1541
ag2
(g4
S'\xefR'
tRp1542
ag2
(g4
S'\xf2r'
tRp1543
ag2
(g4
S'\xf5\x92'
tRp1544
ag2
(g4
S'\xf9\xb2'
tRp1545
ag2
(g4
S'\xfc\xd2'
tRp1546
ag2
(g4
S'\xff\xf2'
tRp1547
ag2
(g4
S'\x03\x13'
tRp1548
ag2
(g4
S'\x063'
tRp1549
ag2
(g4
S'\tS'
tRp1550
ag2
(g4
S'\x0cs'
tRp1551
ag2
(g4
S'\x0f\x93'
tRp1552
ag2
(g4
S'\x12\xb3'
tRp1553
ag2
(g4
S'\x15\xd3'
tRp1554
ag2
(g4
S'\x18\xf3'
tRp1555
ag2
(g4
S'\x1c\x13'
tRp1556
ag2
(g4
S'\x1f3'
tRp1557
ag2
(g4
S'"S'
tRp1558
ag2
(g4
S'%s'
tRp1559
ag2
(g4
S'(\x93'
tRp1560
ag2
(g4
S'+\xb3'
tRp1561
ag2
(g4
S'.\xd3'
tRp1562
ag2
(g4
S'1\xf3'
tRp1563
ag2
(g4
S'5\x13'
tRp1564
ag2
(g4
S'83'
tRp1565
ag2
(g4
S';S'
tRp1566
ag2
(g4
S'>s'
tRp1567
ag2
(g4
S'A\x93'
tRp1568
ag2
(g4
S'D\xb3'
tRp1569
ag2
(g4
S'G\xd3'
tRp1570
ag2
(g4
S'J\xf3'
tRp1571
ag2
(g4
S'N\x13'
tRp1572
ag2
(g4
S'Q3'
tRp1573
ag2
(g4
S'TS'
tRp1574
ag2
(g4
S'Ws'
tRp1575
ag2
(g4
S'Z\x93'
tRp1576
ag2
(g4
S']\xb3'
tRp1577
ag2
(g4
S'`\xd3'
tRp1578
ag2
(g4
S'c\xf3'
tRp1579
ag2
(g4
S'g\x13'
tRp1580
ag2
(g4
S'j3'
tRp1581
ag2
(g4
S'nS'
tRp1582
ag2
(g4
S'qs'
tRp1583
ag2
(g4
S't\x93'
tRp1584
ag2
(g4
S'w\xb3'
tRp1585
ag2
(g4
S'z\xd3'
tRp1586
ag2
(g4
S'}\xf3'
tRp1587
ag2
(g4
S'\x81\x13'
tRp1588
ag2
(g4
S'\x843'
tRp1589
ag2
(g4
S'\x87S'
tRp1590
ag2
(g4
S'\x8as'
tRp1591
ag2
(g4
S'\x8d\x93'
tRp1592
ag2
(g4
S'\x90\xb3'
tRp1593
ag2
(g4
S'\x93\xd3'
tRp1594
ag2
(g4
S'\x96\xf3'
tRp1595
ag2
(g4
S'\x9a\x13'
tRp1596
ag2
(g4
S'\x9d3'
tRp1597
ag2
(g4
S'\xa0S'
tRp1598
ag2
(g4
S'\xa3s'
tRp1599
ag2
(g4
S'\xa6\x93'
tRp1600
ag2
(g4
S'\xa9\xb3'
tRp1601
ag2
(g4
S'\xac\xd3'
tRp1602
ag2
(g4
S'\xaf\xf3'
tRp1603
ag2
(g4
S'\xb3\x13'
tRp1604
ag2
(g4
S'\xb63'
tRp1605
ag2
(g4
S'\xb9S'
tRp1606
ag2
(g4
S'\xbcs'
tRp1607
ag2
(g4
S'\xbf\x93'
tRp1608
ag2
(g4
S'\xc2\xb3'
tRp1609
ag2
(g4
S'\xc5\xd3'
tRp1610
ag2
(g4
S'\xc8\xf3'
tRp1611
ag2
(g4
S'\xcc\x13'
tRp1612
ag2
(g4
S'\xcf3'
tRp1613
ag2
(g4
S'\xd2S'
tRp1614
ag2
(g4
S'\xd5s'
tRp1615
ag2
(g4
S'\xd8\x93'
tRp1616
ag2
(g4
S'\xdb\xb3'
tRp1617
ag2
(g4
S'\xde\xd3'
tRp1618
ag2
(g4
S'\xe1\xf3'
tRp1619
ag2
(g4
S'\xe6\x13'
tRp1620
ag2
(g4
S'\xe93'
tRp1621
ag2
(g4
S'\xecS'
tRp1622
ag2
(g4
S'\xefs'
tRp1623
ag2
(g4
S'\xf2\x93'
tRp1624
ag2
(g4
S'\xf5\xb3'
tRp1625
ag2
(g4
S'\xf8\xd3'
tRp1626
ag2
(g4
S'\xfb\xf3'
tRp1627
ag2
(g4
S'\xff\x13'
tRp1628
ag2
(g4
S'\x024'
tRp1629
ag2
(g4
S'\x05T'
tRp1630
ag2
(g4
S'\x08t'
tRp1631
ag2
(g4
S'\x0b\x94'
tRp1632
ag2
(g4
S'\x0e\xb4'
tRp1633
ag2
(g4
S'\x11\xd4'
tRp1634
ag2
(g4
S'\x14\xf4'
tRp1635
ag2
(g4
S'\x18\x14'
tRp1636
ag2
(g4
S'\x1b4'
tRp1637
ag2
(g4
S'\x1eT'
tRp1638
ag2
(g4
S'!t'
tRp1639
ag2
(g4
S'$\x94'
tRp1640
ag2
(g4
S"'\xb4"
tRp1641
ag2
(g4
S'*\xd4'
tRp1642
ag2
(g4
S'-\xf4'
tRp1643
ag2
(g4
S'1\x14'
tRp1644
ag2
(g4
S'44'
tRp1645
ag2
(g4
S'7T'
tRp1646
ag2
(g4
S':t'
tRp1647
ag2
(g4
S'=\x94'
tRp1648
ag2
(g4
S'@\xb4'
tRp1649
ag2
(g4
S'C\xd4'
tRp1650
ag2
(g4
S'F\xf4'
tRp1651
ag2
(g4
S'J\x14'
tRp1652
ag2
(g4
S'M4'
tRp1653
ag2
(g4
S'PT'
tRp1654
ag2
(g4
S'St'
tRp1655
ag2
(g4
S'V\x94'
tRp1656
ag2
(g4
S'Z\xb4'
tRp1657
ag2
(g4
S']\xd4'
tRp1658
ag2
(g4
S'`\xf4'
tRp1659
ag2
(g4
S'd\x14'
tRp1660
ag2
(g4
S'g4'
tRp1661
ag2
(g4
S'jT'
tRp1662
ag2
(g4
S'mt'
tRp1663
ag2
(g4
S'p\x94'
tRp1664
ag2
(g4
S's\xb4'
tRp1665
ag2
(g4
S'v\xd4'
tRp1666
ag2
(g4
S'y\xf4'
tRp1667
ag2
(g4
S'}\x14'
tRp1668
ag2
(g4
S'\x804'
tRp1669
ag2
(g4
S'\x83T'
tRp1670
ag2
(g4
S'\x86t'
tRp1671
ag2
(g4
S'\x89\x94'
tRp1672
ag2
(g4
S'\x8c\xb4'
tRp1673
ag2
(g4
S'\x8f\xd4'
tRp1674
ag2
(g4
S'\x92\xf4'
tRp1675
ag2
(g4
S'\x96\x14'
tRp1676
ag2
(g4
S'\x994'
tRp1677
ag2
(g4
S'\x9cT'
tRp1678
ag2
(g4
S'\x9ft'
tRp1679
ag2
(g4
S'\xa2\x94'
tRp1680
ag2
(g4
S'\xa5\xb4'
tRp1681
ag2
(g4
S'\xa8\xd4'
tRp1682
ag2
(g4
S'\xab\xf4'
tRp1683
ag2
(g4
S'\xaf\x14'
tRp1684
ag2
(g4
S'\xb24'
tRp1685
ag2
(g4
S'\xb5T'
tRp1686
ag2
(g4
S'\xb8t'
tRp1687
ag2
(g4
S'\xbb\x94'
tRp1688
ag2
(g4
S'\xbe\xb4'
tRp1689
ag2
(g4
S'\xc1\xd4'
tRp1690
ag2
(g4
S'\xc4\xf4'
tRp1691
ag2
(g4
S'\xc8\x14'
tRp1692
ag2
(g4
S'\xcb4'
tRp1693
ag2
(g4
S'\xcfT'
tRp1694
ag2
(g4
S'\xd2t'
tRp1695
ag2
(g4
S'\xd5\x94'
tRp1696
ag2
(g4
S'\xd8\xb4'
tRp1697
ag2
(g4
S'\xdb\xd4'
tRp1698
ag2
(g4
S'\xde\xf4'
tRp1699
ag2
(g4
S'\xe2\x14'
tRp1700
ag2
(g4
S'\xe54'
tRp1701
ag2
(g4
S'\xe8T'
tRp1702
ag2
(g4
S'\xebt'
tRp1703
ag2
(g4
S'\xee\x94'
tRp1704
ag2
(g4
S'\xf1\xb4'
tRp1705
ag2
(g4
S'\xf4\xd4'
tRp1706
ag2
(g4
S'\xf7\xf4'
tRp1707
ag2
(g4
S'\xfb\x14'
tRp1708
ag2
(g4
S'\xfe4'
tRp1709
ag2
(g4
S'\x01U'
tRp1710
ag2
(g4
S'\x04u'
tRp1711
ag2
(g4
S'\x07\x95'
tRp1712
ag2
(g4
S'\n\xb5'
tRp1713
ag2
(g4
S'\r\xd5'
tRp1714
ag2
(g4
S'\x10\xf5'
tRp1715
ag2
(g4
S'\x14\x15'
tRp1716
ag2
(g4
S'\x175'
tRp1717
ag2
(g4
S'\x1aU'
tRp1718
ag2
(g4
S'\x1du'
tRp1719
ag2
(g4
S' \x95'
tRp1720
ag2
(g4
S'#\xb5'
tRp1721
ag2
(g4
S'&\xd5'
tRp1722
ag2
(g4
S')\xf5'
tRp1723
ag2
(g4
S'-\x15'
tRp1724
ag2
(g4
S'05'
tRp1725
ag2
(g4
S'3U'
tRp1726
ag2
(g4
S'6u'
tRp1727
ag2
(g4
S'9\x95'
tRp1728
ag2
(g4
S'<\xb5'
tRp1729
ag2
(g4
S'?\xd5'
tRp1730
ag2
(g4
S'C\xf5'
tRp1731
ag2
(g4
S'G\x15'
tRp1732
ag2
(g4
S'J5'
tRp1733
ag2
(g4
S'MU'
tRp1734
ag2
(g4
S'Pu'
tRp1735
ag2
(g4
S'S\x95'
tRp1736
ag2
(g4
S'V\xb5'
tRp1737
ag2
(g4
S'Y\xd5'
tRp1738
ag2
(g4
S'\\\xf5'
tRp1739
ag2
(g4
S'`\x15'
tRp1740
ag2
(g4
S'c5'
tRp1741
ag2
(g4
S'fU'
tRp1742
ag2
(g4
S'iu'
tRp1743
ag2
(g4
S'l\x95'
tRp1744
ag2
(g4
S'o\xb5'
tRp1745
ag2
(g4
S'r\xd5'
tRp1746
ag2
(g4
S'u\xf5'
tRp1747
ag2
(g4
S'y\x15'
tRp1748
ag2
(g4
S'|5'
tRp1749
ag2
(g4
S'\x7fU'
tRp1750
ag2
(g4
S'\x82u'
tRp1751
ag2
(g4
S'\x85\x95'
tRp1752
ag2
(g4
S'\x88\xb5'
tRp1753
ag2
(g4
S'\x8b\xd5'
tRp1754
ag2
(g4
S'\x8e\xf5'
tRp1755
ag2
(g4
S'\x92\x15'
tRp1756
ag2
(g4
S'\x955'
tRp1757
ag2
(g4
S'\x98U'
tRp1758
ag2
(g4
S'\x9bu'
tRp1759
ag2
(g4
S'\x9e\x95'
tRp1760
ag2
(g4
S'\xa1\xb5'
tRp1761
ag2
(g4
S'\xa4\xd5'
tRp1762
ag2
(g4
S'\xa7\xf5'
tRp1763
ag2
(g4
S'\xab\x15'
tRp1764
ag2
(g4
S'\xae5'
tRp1765
ag2
(g4
S'\xb1U'
tRp1766
ag2
(g4
S'\xb4u'
tRp1767
ag2
(g4
S'\xb8\x95'
tRp1768
ag2
(g4
S'\xbb\xb5'
tRp1769
ag2
(g4
S'\xbe\xd5'
tRp1770
ag2
(g4
S'\xc1\xf5'
tRp1771
ag2
(g4
S'\xc5\x15'
tRp1772
ag2
(g4
S'\xc85'
tRp1773
ag2
(g4
S'\xcbU'
tRp1774
ag2
(g4
S'\xceu'
tRp1775
ag2
(g4
S'\xd1\x95'
tRp1776
ag2
(g4
S'\xd4\xb5'
tRp1777
ag2
(g4
S'\xd7\xd5'
tRp1778
ag2
(g4
S'\xda\xf5'
tRp1779
ag2
(g4
S'\xde\x15'
tRp1780
ag2
(g4
S'\xe15'
tRp1781
ag2
(g4
S'\xe4U'
tRp1782
ag2
(g4
S'\xe7u'
tRp1783
ag2
(g4
S'\xea\x95'
tRp1784
ag2
(g4
S'\xed\xb5'
tRp1785
ag2
(g4
S'\xf0\xd5'
tRp1786
ag2
(g4
S'\xf3\xf5'
tRp1787
ag2
(g4
S'\xf7\x15'
tRp1788
ag2
(g4
S'\xfa5'
tRp1789
ag2
(g4
S'\xfdU'
tRp1790
ag2
(g4
S'\x00v'
tRp1791
ag2
(g4
S'\x03\x96'
tRp1792
ag2
(g4
S'\x06\xb6'
tRp1793
ag2
(g4
S'\t\xd6'
tRp1794
ag2
(g4
S'\x0c\xf6'
tRp1795
ag2
(g4
S'\x10\x16'
tRp1796
ag2
(g4
S'\x136'
tRp1797
ag2
(g4
S'\x16V'
tRp1798
ag2
(g4
S'\x19v'
tRp1799
ag2
(g4
S'\x1c\x96'
tRp1800
ag2
(g4
S'\x1f\xb6'
tRp1801
ag2
(g4
S'"\xd6'
tRp1802
ag2
(g4
S'%\xf6'
tRp1803
ag2
(g4
S')\x16'
tRp1804
ag2
(g4
S'-6'
tRp1805
ag2
(g4
S'0V'
tRp1806
ag2
(g4
S'3v'
tRp1807
ag2
(g4
S'6\x96'
tRp1808
ag2
(g4
S'9\xb6'
tRp1809
ag2
(g4
S'<\xd6'
tRp1810
ag2
(g4
S'?\xf6'
tRp1811
ag2
(g4
S'C\x16'
tRp1812
ag2
(g4
S'F6'
tRp1813
ag2
(g4
S'IV'
tRp1814
ag2
(g4
S'Lv'
tRp1815
ag2
(g4
S'O\x96'
tRp1816
ag2
(g4
S'R\xb6'
tRp1817
ag2
(g4
S'U\xd6'
tRp1818
ag2
(g4
S'X\xf6'
tRp1819
ag2
(g4
S'\\\x16'
tRp1820
ag2
(g4
S'_6'
tRp1821
ag2
(g4
S'bV'
tRp1822
ag2
(g4
S'ev'
tRp1823
ag2
(g4
S'h\x96'
tRp1824
ag2
(g4
S'k\xb6'
tRp1825
ag2
(g4
S'n\xd6'
tRp1826
ag2
(g4
S'q\xf6'
tRp1827
ag2
(g4
S'u\x16'
tRp1828
ag2
(g4
S'x6'
tRp1829
ag2
(g4
S'{V'
tRp1830
ag2
(g4
S'~v'
tRp1831
ag2
(g4
S'\x81\x96'
tRp1832
ag2
(g4
S'\x84\xb6'
tRp1833
ag2
(g4
S'\x87\xd6'
tRp1834
ag2
(g4
S'\x8a\xf6'
tRp1835
ag2
(g4
S'\x8e\x16'
tRp1836
ag2
(g4
S'\x916'
tRp1837
ag2
(g4
S'\x94V'
tRp1838
ag2
(g4
S'\x97v'
tRp1839
ag2
(g4
S'\x9a\x96'
tRp1840
ag2
(g4
S'\x9d\xb6'
tRp1841
ag2
(g4
S'\xa1\xd6'
tRp1842
ag2
(g4
S'\xa4\xf6'
tRp1843
ag2
(g4
S'\xa8\x16'
tRp1844
ag2
(g4
S'\xab6'
tRp1845
ag2
(g4
S'\xaeV'
tRp1846
ag2
(g4
S'\xb1v'
tRp1847
ag2
(g4
S'\xb4\x96'
tRp1848
ag2
(g4
S'\xb7\xb6'
tRp1849
ag2
(g4
S'\xba\xd6'
tRp1850
ag2
(g4
S'\xbd\xf6'
tRp1851
ag2
(g4
S'\xc1\x16'
tRp1852
ag2
(g4
S'\xc46'
tRp1853
ag2
(g4
S'\xc7V'
tRp1854
ag2
(g4
S'\xcav'
tRp1855
ag2
(g4
S'\xcd\x96'
tRp1856
ag2
(g4
S'\xd0\xb6'
tRp1857
ag2
(g4
S'\xd3\xd6'
tRp1858
ag2
(g4
S'\xd6\xf6'
tRp1859
ag2
(g4
S'\xda\x16'
tRp1860
ag2
(g4
S'\xdd6'
tRp1861
ag2
(g4
S'\xe0V'
tRp1862
ag2
(g4
S'\xe3v'
tRp1863
ag2
(g4
S'\xe6\x96'
tRp1864
ag2
(g4
S'\xe9\xb6'
tRp1865
ag2
(g4
S'\xec\xd6'
tRp1866
ag2
(g4
S'\xef\xf6'
tRp1867
ag2
(g4
S'\xf3\x16'
tRp1868
ag2
(g4
S'\xf66'
tRp1869
ag2
(g4
S'\xf9V'
tRp1870
ag2
(g4
S'\xfcv'
tRp1871
ag2
(g4
S'\xff\x96'
tRp1872
ag2
(g4
S'\x02\xb7'
tRp1873
ag2
(g4
S'\x05\xd7'
tRp1874
ag2
(g4
S'\x08\xf7'
tRp1875
ag2
(g4
S'\x0c\x17'
tRp1876
ag2
(g4
S'\x0f7'
tRp1877
ag2
(g4
S'\x12W'
tRp1878
ag2
(g4
S'\x16w'
tRp1879
ag2
(g4
S'\x19\x97'
tRp1880
ag2
(g4
S'\x1c\xb7'
tRp1881
ag2
(g4
S'\x1f\xd7'
tRp1882
ag2
(g4
S'"\xf7'
tRp1883
ag2
(g4
S'&\x17'
tRp1884
ag2
(g4
S')7'
tRp1885
ag2
(g4
S',W'
tRp1886
ag2
(g4
S'/w'
tRp1887
ag2
(g4
S'2\x97'
tRp1888
ag2
(g4
S'5\xb7'
tRp1889
ag2
(g4
S'8\xd7'
tRp1890
ag2
(g4
S';\xf7'
tRp1891
ag2
(g4
S'?\x17'
tRp1892
ag2
(g4
S'B7'
tRp1893
ag2
(g4
S'EW'
tRp1894
ag2
(g4
S'Hw'
tRp1895
ag2
(g4
S'K\x97'
tRp1896
ag2
(g4
S'N\xb7'
tRp1897
ag2
(g4
S'Q\xd7'
tRp1898
ag2
(g4
S'T\xf7'
tRp1899
ag2
(g4
S'X\x17'
tRp1900
ag2
(g4
S'[7'
tRp1901
ag2
(g4
S'^W'
tRp1902
ag2
(g4
S'aw'
tRp1903
ag2
(g4
S'd\x97'
tRp1904
ag2
(g4
S'g\xb7'
tRp1905
ag2
(g4
S'j\xd7'
tRp1906
ag2
(g4
S'm\xf7'
tRp1907
ag2
(g4
S'q\x17'
tRp1908
ag2
(g4
S't7'
tRp1909
ag2
(g4
S'wW'
tRp1910
ag2
(g4
S'zw'
tRp1911
ag2
(g4
S'}\x97'
tRp1912
ag2
(g4
S'\x80\xb7'
tRp1913
ag2
(g4
S'\x83\xd7'
tRp1914
ag2
(g4
S'\x86\xf7'
tRp1915
ag2
(g4
S'\x8a\x17'
tRp1916
ag2
(g4
S'\x8e7'
tRp1917
ag2
(g4
S'\x91W'
tRp1918
ag2
(g4
S'\x94w'
tRp1919
ag2
(g4
S'\x97\x97'
tRp1920
ag2
(g4
S'\x9a\xb7'
tRp1921
ag2
(g4
S'\x9d\xd7'
tRp1922
ag2
(g4
S'\xa0\xf7'
tRp1923
ag2
(g4
S'\xa4\x17'
tRp1924
ag2
(g4
S'\xa77'
tRp1925
ag2
(g4
S'\xaaW'
tRp1926
ag2
(g4
S'\xadw'
tRp1927
ag2
(g4
S'\xb0\x97'
tRp1928
ag2
(g4
S'\xb3\xb7'
tRp1929
ag2
(g4
S'\xb6\xd7'
tRp1930
ag2
(g4
S'\xb9\xf7'
tRp1931
ag2
(g4
S'\xbd\x17'
tRp1932
ag2
(g4
S'\xc07'
tRp1933
ag2
(g4
S'\xc3W'
tRp1934
ag2
(g4
S'\xc6w'
tRp1935
ag2
(g4
S'\xc9\x97'
tRp1936
ag2
(g4
S'\xcc\xb7'
tRp1937
ag2
(g4
S'\xcf\xd7'
tRp1938
ag2
(g4
S'\xd2\xf7'
tRp1939
ag2
(g4
S'\xd6\x17'
tRp1940
ag2
(g4
S'\xd97'
tRp1941
ag2
(g4
S'\xdcW'
tRp1942
ag2
(g4
S'\xdfw'
tRp1943
ag2
(g4
S'\xe2\x97'
tRp1944
ag2
(g4
S'\xe5\xb7'
tRp1945
ag2
(g4
S'\xe8\xd7'
tRp1946
ag2
(g4
S'\xeb\xf7'
tRp1947
ag2
(g4
S'\xef\x17'
tRp1948
ag2
(g4
S'\xf27'
tRp1949
ag2
(g4
S'\xf5W'
tRp1950
ag2
(g4
S'\xf8w'
tRp1951
ag2
(g4
S'\xfb\x97'
tRp1952
ag2
(g4
S'\xfe\xb7'
tRp1953
ag2
(g4
S'\x02\xd8'
tRp1954
ag2
(g4
S'\x05\xf8'
tRp1955
ag2
(g4
S'\t\x18'
tRp1956
ag2
(g4
S'\x0c8'
tRp1957
ag2
(g4
S'\x0fX'
tRp1958
ag2
(g4
S'\x12x'
tRp1959
ag2
(g4
S'\x15\x98'
tRp1960
ag2
(g4
S'\x18\xb8'
tRp1961
ag2
(g4
S'\x1b\xd8'
tRp1962
ag2
(g4
S'\x1e\xf8'
tRp1963
ag2
(g4
S'"\x18'
tRp1964
ag2
(g4
S'%8'
tRp1965
ag2
(g4
S'(X'
tRp1966
ag2
(g4
S'+x'
tRp1967
ag2
(g4
S'.\x98'
tRp1968
ag2
(g4
S'1\xb8'
tRp1969
ag2
(g4
S'4\xd8'
tRp1970
ag2
(g4
S'7\xf8'
tRp1971
ag2
(g4
S';\x18'
tRp1972
ag2
(g4
S'>8'
tRp1973
ag2
(g4
S'AX'
tRp1974
ag2
(g4
S'Dx'
tRp1975
ag2
(g4
S'G\x98'
tRp1976
ag2
(g4
S'J\xb8'
tRp1977
ag2
(g4
S'M\xd8'
tRp1978
ag2
(g4
S'P\xf8'
tRp1979
ag2
(g4
S'T\x18'
tRp1980
ag2
(g4
S'W8'
tRp1981
ag2
(g4
S'ZX'
tRp1982
ag2
(g4
S']x'
tRp1983
ag2
(g4
S'`\x98'
tRp1984
ag2
(g4
S'c\xb8'
tRp1985
ag2
(g4
S'f\xd8'
tRp1986
ag2
(g4
S'i\xf8'
tRp1987
ag2
(g4
S'm\x18'
tRp1988
ag2
(g4
S'p8'
tRp1989
ag2
(g4
S'sX'
tRp1990
ag2
(g4
S'wx'
tRp1991
ag2
(g4
S'z\x98'
tRp1992
ag2
(g4
S'}\xb8'
tRp1993
ag2
(g4
S'\x80\xd8'
tRp1994
ag2
(g4
S'\x83\xf8'
tRp1995
ag2
(g4
S'\x87\x18'
tRp1996
ag2
(g4
S'\x8a8'
tRp1997
ag2
(g4
S'\x8dX'
tRp1998
ag2
(g4
S'\x90x'
tRp1999
ag2
(g4
S'\x93\x98'
tRp2000
ag2
(g4
S'\x96\xb8'
tRp2001
ag2
(g4
S'\x99\xd8'
tRp2002
ag2
(g4
S'\x9c\xf8'
tRp2003
ag2
(g4
S'\xa0\x18'
tRp2004
ag2
(g4
S'\xa38'
tRp2005
ag2
(g4
S'\xa6X'
tRp2006
ag2
(g4
S'\xa9x'
tRp2007
ag2
(g4
S'\xac\x98'
tRp2008
ag2
(g4
S'\xaf\xb8'
tRp2009
ag2
(g4
S'\xb2\xd8'
tRp2010
ag2
(g4
S'\xb5\xf8'
tRp2011
ag2
(g4
S'\xb9\x18'
tRp2012
ag2
(g4
S'\xbc8'
tRp2013
ag2
(g4
S'\xbfX'
tRp2014
ag2
(g4
S'\xc2x'
tRp2015
ag2
(g4
S'\xc5\x98'
tRp2016
ag2
(g4
S'\xc8\xb8'
tRp2017
ag2
(g4
S'\xcb\xd8'
tRp2018
ag2
(g4
S'\xce\xf8'
tRp2019
ag2
(g4
S'\xd2\x18'
tRp2020
ag2
(g4
S'\xd58'
tRp2021
ag2
(g4
S'\xd8X'
tRp2022
ag2
(g4
S'\xdbx'
tRp2023
ag2
(g4
S'\xde\x98'
tRp2024
ag2
(g4
S'\xe1\xb8'
tRp2025
ag2
(g4
S'\xe4\xd8'
tRp2026
ag2
(g4
S'\xe7\xf8'
tRp2027
ag2
(g4
S'\xec\x18'
tRp2028
ag2
(g4
S'\xef8'
tRp2029
ag2
(g4
S'\xf2X'
tRp2030
ag2
(g4
S'\xf5x'
tRp2031
ag2
(g4
S'\xf8\x98'
tRp2032
ag2
(g4
S'\xfb\xb8'
tRp2033
ag2
(g4
S'\xfe\xd8'
tRp2034
ag2
(g4
S'\x01\xf9'
tRp2035
ag2
(g4
S'\x05\x19'
tRp2036
ag2
(g4
S'\x089'
tRp2037
ag2
(g4
S'\x0bY'
tRp2038
ag2
(g4
S'\x0ey'
tRp2039
ag2
(g4
S'\x11\x99'
tRp2040
ag2
(g4
S'\x14\xb9'
tRp2041
ag2
(g4
S'\x17\xd9'
tRp2042
ag2
(g4
S'\x1a\xf9'
tRp2043
ag2
(g4
S'\x1e\x19'
tRp2044
ag2
(g4
S'!9'
tRp2045
ag2
(g4
S'$Y'
tRp2046
ag2
(g4
S"'y"
tRp2047
ag2
(g4
S'*\x99'
tRp2048
ag2
(g4
S'-\xb9'
tRp2049
ag2
(g4
S'0\xd9'
tRp2050
ag2
(g4
S'3\xf9'
tRp2051
ag2
(g4
S'7\x19'
tRp2052
ag2
(g4
S':9'
tRp2053
ag2
(g4
S'=Y'
tRp2054
ag2
(g4
S'@y'
tRp2055
ag2
(g4
S'C\x99'
tRp2056
ag2
(g4
S'F\xb9'
tRp2057
ag2
(g4
S'I\xd9'
tRp2058
ag2
(g4
S'L\xf9'
tRp2059
ag2
(g4
S'P\x19'
tRp2060
ag2
(g4
S'S9'
tRp2061
ag2
(g4
S'VY'
tRp2062
ag2
(g4
S'Yy'
tRp2063
ag2
(g4
S'\\\x99'
tRp2064
ag2
(g4
S'`\xb9'
tRp2065
ag2
(g4
S'c\xd9'
tRp2066
ag2
(g4
S'f\xf9'
tRp2067
ag2
(g4
S'j\x19'
tRp2068
ag2
(g4
S'm9'
tRp2069
ag2
(g4
S'pY'
tRp2070
ag2
(g4
S'sy'
tRp2071
ag2
(g4
S'v\x99'
tRp2072
ag2
(g4
S'y\xb9'
tRp2073
ag2
(g4
S'|\xd9'
tRp2074
ag2
(g4
S'\x7f\xf9'
tRp2075
ag2
(g4
S'\x83\x19'
tRp2076
ag2
(g4
S'\x869'
tRp2077
ag2
(g4
S'\x89Y'
tRp2078
ag2
(g4
S'\x8cy'
tRp2079
ag2
(g4
S'\x8f\x99'
tRp2080
ag2
(g4
S'\x92\xb9'
tRp2081
ag2
(g4
S'\x95\xd9'
tRp2082
ag2
(g4
S'\x98\xf9'
tRp2083
ag2
(g4
S'\x9c\x19'
tRp2084
ag2
(g4
S'\x9f9'
tRp2085
ag2
(g4
S'\xa2Y'
tRp2086
ag2
(g4
S'\xa5y'
tRp2087
ag2
(g4
S'\xa8\x99'
tRp2088
ag2
(g4
S'\xab\xb9'
tRp2089
ag2
(g4
S'\xae\xd9'
tRp2090
ag2
(g4
S'\xb1\xf9'
tRp2091
ag2
(g4
S'\xb5\x19'
tRp2092
ag2
(g4
S'\xb89'
tRp2093
ag2
(g4
S'\xbbY'
tRp2094
ag2
(g4
S'\xbey'
tRp2095
ag2
(g4
S'\xc1\x99'
tRp2096
ag2
(g4
S'\xc4\xb9'
tRp2097
ag2
(g4
S'\xc7\xd9'
tRp2098
ag2
(g4
S'\xca\xf9'
tRp2099
ag2
(g4
S'\xce\x19'
tRp2100
ag2
(g4
S'\xd19'
tRp2101
ag2
(g4
S'\xd5Y'
tRp2102
ag2
(g4
S'\xd8y'
tRp2103
ag2
(g4
S'\xdb\x99'
tRp2104
ag2
(g4
S'\xde\xb9'
tRp2105
ag2
(g4
S'\xe1\xd9'
tRp2106
ag2
(g4
S'\xe4\xf9'
tRp2107
ag2
(g4
S'\xe8\x19'
tRp2108
ag2
(g4
S'\xeb9'
tRp2109
ag2
(g4
S'\xeeY'
tRp2110
ag2
(g4
S'\xf1y'
tRp2111
ag2
(g4
S'\xf4\x99'
tRp2112
ag2
(g4
S'\xf7\xb9'
tRp2113
ag2
(g4
S'\xfa\xd9'
tRp2114
ag2
(g4
S'\xfd\xf9'
tRp2115
ag2
(g4
S'\x01\x1a'
tRp2116
ag2
(g4
S'\x04:'
tRp2117
ag2
(g4
S'\x07Z'
tRp2118
ag2
(g4
S'\nz'
tRp2119
ag2
(g4
S'\r\x9a'
tRp2120
ag2
(g4
S'\x10\xba'
tRp2121
ag2
(g4
S'\x13\xda'
tRp2122
ag2
(g4
S'\x16\xfa'
tRp2123
ag2
(g4
S'\x1a\x1a'
tRp2124
ag2
(g4
S'\x1d:'
tRp2125
ag2
(g4
S' Z'
tRp2126
ag2
(g4
S'#z'
tRp2127
ag2
(g4
S'&\x9a'
tRp2128
ag2
(g4
S')\xba'
tRp2129
ag2
(g4
S',\xda'
tRp2130
ag2
(g4
S'/\xfa'
tRp2131
ag2
(g4
S'3\x1a'
tRp2132
ag2
(g4
S'6:'
tRp2133
ag2
(g4
S'9Z'
tRp2134
ag2
(g4
S'<z'
tRp2135
ag2
(g4
S'?\x9a'
tRp2136
ag2
(g4
S'B\xba'
tRp2137
ag2
(g4
S'E\xda'
tRp2138
ag2
(g4
S'I\xfa'
tRp2139
ag2
(g4
S'M\x1a'
tRp2140
ag2
(g4
S'P:'
tRp2141
ag2
(g4
S'SZ'
tRp2142
ag2
(g4
S'Vz'
tRp2143
ag2
(g4
S'Y\x9a'
tRp2144
ag2
(g4
S'\\\xba'
tRp2145
ag2
(g4
S'_\xda'
tRp2146
ag2
(g4
S'b\xfa'
tRp2147
ag2
(g4
S'f\x1a'
tRp2148
ag2
(g4
S'i:'
tRp2149
ag2
(g4
S'lZ'
tRp2150
ag2
(g4
S'oz'
tRp2151
ag2
(g4
S'r\x9a'
tRp2152
ag2
(g4
S'u\xba'
tRp2153
ag2
(g4
S'x\xda'
tRp2154
ag2
(g4
S'{\xfa'
tRp2155
ag2
(g4
S'\x7f\x1a'
tRp2156
ag2
(g4
S'\x82:'
tRp2157
ag2
(g4
S'\x85Z'
tRp2158
ag2
(g4
S'\x88z'
tRp2159
ag2
(g4
S'\x8b\x9a'
tRp2160
ag2
(g4
S'\x8e\xba'
tRp2161
ag2
(g4
S'\x91\xda'
tRp2162
ag2
(g4
S'\x94\xfa'
tRp2163
ag2
(g4
S'\x98\x1a'
tRp2164
ag2
(g4
S'\x9b:'
tRp2165
ag2
(g4
S'\x9eZ'
tRp2166
ag2
(g4
S'\xa1z'
tRp2167
ag2
(g4
S'\xa4\x9a'
tRp2168
ag2
(g4
S'\xa7\xba'
tRp2169
ag2
(g4
S'\xaa\xda'
tRp2170
ag2
(g4
S'\xad\xfa'
tRp2171
ag2
(g4
S'\xb1\x1a'
tRp2172
ag2
(g4
S'\xb4:'
tRp2173
ag2
(g4
S'\xb7Z'
tRp2174
ag2
(g4
S'\xbaz'
tRp2175
ag2
(g4
S'\xbd\x9a'
tRp2176
ag2
(g4
S'\xc1\xba'
tRp2177
ag2
(g4
S'\xc4\xda'
tRp2178
ag2
(g4
S'\xc7\xfa'
tRp2179
ag2
(g4
S'\xcb\x1a'
tRp2180
ag2
(g4
S'\xce:'
tRp2181
ag2
(g4
S'\xd1Z'
tRp2182
ag2
(g4
S'\xd4z'
tRp2183
ag2
(g4
S'\xd7\x9a'
tRp2184
ag2
(g4
S'\xda\xba'
tRp2185
ag2
(g4
S'\xdd\xda'
tRp2186
ag2
(g4
S'\xe0\xfa'
tRp2187
ag2
(g4
S'\xe4\x1a'
tRp2188
ag2
(g4
S'\xe7:'
tRp2189
ag2
(g4
S'\xeaZ'
tRp2190
ag2
(g4
S'\xedz'
tRp2191
ag2
(g4
S'\xf0\x9a'
tRp2192
ag2
(g4
S'\xf3\xba'
tRp2193
ag2
(g4
S'\xf6\xda'
tRp2194
ag2
(g4
S'\xf9\xfa'
tRp2195
ag2
(g4
S'\xfd\x1a'
tRp2196
ag2
(g4
S'\x00;'
tRp2197
ag2
(g4
S'\x03['
tRp2198
ag2
(g4
S'\x06{'
tRp2199
ag2
(g4
S'\t\x9b'
tRp2200
ag2
(g4
S'\x0c\xbb'
tRp2201
ag2
(g4
S'\x0f\xdb'
tRp2202
ag2
(g4
S'\x12\xfb'
tRp2203
ag2
(g4
S'\x16\x1b'
tRp2204
ag2
(g4
S'\x19;'
tRp2205
ag2
(g4
S'\x1c['
tRp2206
ag2
(g4
S'\x1f{'
tRp2207
ag2
(g4
S'"\x9b'
tRp2208
ag2
(g4
S'%\xbb'
tRp2209
ag2
(g4
S'(\xdb'
tRp2210
ag2
(g4
S'+\xfb'
tRp2211
ag2
(g4
S'/\x1b'
tRp2212
ag2
(g4
S'2;'
tRp2213
ag2
(g4
S'6['
tRp2214
ag2
(g4
S'9{'
tRp2215
ag2
(g4
S'<\x9b'
tRp2216
ag2
(g4
S'?\xbb'
tRp2217
ag2
(g4
S'B\xdb'
tRp2218
ag2
(g4
S'E\xfb'
tRp2219
ag2
(g4
S'I\x1b'
tRp2220
ag2
(g4
S'L;'
tRp2221
ag2
(g4
S'O['
tRp2222
ag2
(g4
S'R{'
tRp2223
ag2
(g4
S'U\x9b'
tRp2224
ag2
(g4
S'X\xbb'
tRp2225
ag2
(g4
S'[\xdb'
tRp2226
ag2
(g4
S'^\xfb'
tRp2227
ag2
(g4
S'b\x1b'
tRp2228
ag2
(g4
S'e;'
tRp2229
ag2
(g4
S'h['
tRp2230
ag2
(g4
S'k{'
tRp2231
ag2
(g4
S'n\x9b'
tRp2232
ag2
(g4
S'q\xbb'
tRp2233
ag2
(g4
S't\xdb'
tRp2234
ag2
(g4
S'w\xfb'
tRp2235
ag2
(g4
S'{\x1b'
tRp2236
ag2
(g4
S'~;'
tRp2237
ag2
(g4
S'\x81['
tRp2238
ag2
(g4
S'\x84{'
tRp2239
ag2
(g4
S'\x87\x9b'
tRp2240
ag2
(g4
S'\x8a\xbb'
tRp2241
ag2
(g4
S'\x8d\xdb'
tRp2242
ag2
(g4
S'\x90\xfb'
tRp2243
ag2
(g4
S'\x94\x1b'
tRp2244
ag2
(g4
S'\x97;'
tRp2245
ag2
(g4
S'\x9a['
tRp2246
ag2
(g4
S'\x9d{'
tRp2247
ag2
(g4
S'\xa0\x9b'
tRp2248
ag2
(g4
S'\xa3\xbb'
tRp2249
ag2
(g4
S'\xa6\xdb'
tRp2250
ag2
(g4
S'\xaa\xfb'
tRp2251
ag2
(g4
S'\xae\x1b'
tRp2252
ag2
(g4
S'\xb1;'
tRp2253
ag2
(g4
S'\xb4['
tRp2254
ag2
(g4
S'\xb7{'
tRp2255
ag2
(g4
S'\xba\x9b'
tRp2256
ag2
(g4
S'\xbd\xbb'
tRp2257
ag2
(g4
S'\xc0\xdb'
tRp2258
ag2
(g4
S'\xc3\xfb'
tRp2259
ag2
(g4
S'\xc7\x1b'
tRp2260
ag2
(g4
S'\xca;'
tRp2261
ag2
(g4
S'\xcd['
tRp2262
ag2
(g4
S'\xd0{'
tRp2263
ag2
(g4
S'\xd3\x9b'
tRp2264
ag2
(g4
S'\xd6\xbb'
tRp2265
ag2
(g4
S'\xd9\xdb'
tRp2266
ag2
(g4
S'\xdc\xfb'
tRp2267
ag2
(g4
S'\xe0\x1b'
tRp2268
ag2
(g4
S'\xe3;'
tRp2269
ag2
(g4
S'\xe6['
tRp2270
ag2
(g4
S'\xe9{'
tRp2271
ag2
(g4
S'\xec\x9b'
tRp2272
ag2
(g4
S'\xef\xbb'
tRp2273
ag2
(g4
S'\xf2\xdb'
tRp2274
ag2
(g4
S'\xf5\xfb'
tRp2275
ag2
(g4
S'\xf9\x1b'
tRp2276
ag2
(g4
S'\xfc;'
tRp2277
ag2
(g4
S'\xff['
tRp2278
ag2
(g4
S'\x02|'
tRp2279
ag2
(g4
S'\x05\x9c'
tRp2280
ag2
(g4
S'\x08\xbc'
tRp2281
ag2
(g4
S'\x0b\xdc'
tRp2282
ag2
(g4
S'\x0e\xfc'
tRp2283
ag2
(g4
S'\x12\x1c'
tRp2284
ag2
(g4
S'\x15<'
tRp2285
ag2
(g4
S'\x18\\'
tRp2286
ag2
(g4
S'\x1b|'
tRp2287
ag2
(g4
S'\x1f\x9c'
tRp2288
ag2
(g4
S'"\xbc'
tRp2289
ag2
(g4
S'%\xdc'
tRp2290
ag2
(g4
S'(\xfc'
tRp2291
ag2
(g4
S',\x1c'
tRp2292
ag2
(g4
S'/<'
tRp2293
ag2
(g4
S'2\\'
tRp2294
ag2
(g4
S'5|'
tRp2295
ag2
(g4
S'8\x9c'
tRp2296
ag2
(g4
S';\xbc'
tRp2297
ag2
(g4
S'>\xdc'
tRp2298
ag2
(g4
S'A\xfc'
tRp2299
ag2
(g4
S'E\x1c'
tRp2300
ag2
(g4
S'H<'
tRp2301
ag2
(g4
S'K\\'
tRp2302
ag2
(g4
S'N|'
tRp2303
ag2
(g4
S'Q\x9c'
tRp2304
ag2
(g4
S'T\xbc'
tRp2305
ag2
(g4
S'W\xdc'
tRp2306
ag2
(g4
S'Z\xfc'
tRp2307
ag2
(g4
S'^\x1c'
tRp2308
ag2
(g4
S'a<'
tRp2309
ag2
(g4
S'd\\'
tRp2310
ag2
(g4
S'g|'
tRp2311
ag2
(g4
S'j\x9c'
tRp2312
ag2
(g4
S'm\xbc'
tRp2313
ag2
(g4
S'p\xdc'
tRp2314
ag2
(g4
S's\xfc'
tRp2315
ag2
(g4
S'w\x1c'
tRp2316
ag2
(g4
S'z<'
tRp2317
ag2
(g4
S'}\\'
tRp2318
ag2
(g4
S'\x80|'
tRp2319
ag2
(g4
S'\x83\x9c'
tRp2320
ag2
(g4
S'\x86\xbc'
tRp2321
ag2
(g4
S'\x89\xdc'
tRp2322
ag2
(g4
S'\x8c\xfc'
tRp2323
ag2
(g4
S'\x90\x1c'
tRp2324
ag2
(g4
S'\x94<'
tRp2325
ag2
(g4
S'\x97\\'
tRp2326
ag2
(g4
S'\x9a|'
tRp2327
ag2
(g4
S'\x9d\x9c'
tRp2328
ag2
(g4
S'\xa0\xbc'
tRp2329
ag2
(g4
S'\xa3\xdc'
tRp2330
ag2
(g4
S'\xa6\xfc'
tRp2331
ag2
(g4
S'\xaa\x1c'
tRp2332
ag2
(g4
S'\xad<'
tRp2333
ag2
(g4
S'\xb0\\'
tRp2334
ag2
(g4
S'\xb3|'
tRp2335
ag2
(g4
S'\xb6\x9c'
tRp2336
ag2
(g4
S'\xb9\xbc'
tRp2337
ag2
(g4
S'\xbc\xdc'
tRp2338
ag2
(g4
S'\xbf\xfc'
tRp2339
ag2
(g4
S'\xc3\x1c'
tRp2340
ag2
(g4
S'\xc6<'
tRp2341
ag2
(g4
S'\xc9\\'
tRp2342
ag2
(g4
S'\xcc|'
tRp2343
ag2
(g4
S'\xcf\x9c'
tRp2344
ag2
(g4
S'\xd2\xbc'
tRp2345
ag2
(g4
S'\xd5\xdc'
tRp2346
ag2
(g4
S'\xd8\xfc'
tRp2347
ag2
(g4
S'\xdc\x1c'
tRp2348
ag2
(g4
S'\xdf<'
tRp2349
ag2
(g4
S'\xe2\\'
tRp2350
ag2
(g4
S'\xe5|'
tRp2351
ag2
(g4
S'\xe8\x9c'
tRp2352
ag2
(g4
S'\xeb\xbc'
tRp2353
ag2
(g4
S'\xee\xdc'
tRp2354
ag2
(g4
S'\xf1\xfc'
tRp2355
ag2
(g4
S'\xf5\x1c'
tRp2356
ag2
(g4
S'\xf8<'
tRp2357
ag2
(g4
S'\xfb\\'
tRp2358
ag2
(g4
S'\xfe|'
tRp2359
ag2
(g4
S'\x01\x9d'
tRp2360
ag2
(g4
S'\x04\xbd'
tRp2361
ag2
(g4
S'\x08\xdd'
tRp2362
ag2
(g4
S'\x0b\xfd'
tRp2363
ag2
(g4
S'\x0f\x1d'
tRp2364
ag2
(g4
S'\x12='
tRp2365
ag2
(g4
S'\x15]'
tRp2366
ag2
(g4
S'\x18}'
tRp2367
ag2
(g4
S'\x1b\x9d'
tRp2368
ag2
(g4
S'\x1e\xbd'
tRp2369
ag2
(g4
S'!\xdd'
tRp2370
ag2
(g4
S'$\xfd'
tRp2371
ag2
(g4
S'(\x1d'
tRp2372
ag2
(g4
S'+='
tRp2373
ag2
(g4
S'.]'
tRp2374
ag2
(g4
S'1}'
tRp2375
ag2
(g4
S'4\x9d'
tRp2376
ag2
(g4
S'7\xbd'
tRp2377
ag2
(g4
S':\xdd'
tRp2378
ag2
(g4
S'=\xfd'
tRp2379
ag2
(g4
S'A\x1d'
tRp2380
ag2
(g4
S'D='
tRp2381
ag2
(g4
S'G]'
tRp2382
ag2
(g4
S'J}'
tRp2383
ag2
(g4
S'M\x9d'
tRp2384
ag2
(g4
S'P\xbd'
tRp2385
ag2
(g4
S'S\xdd'
tRp2386
ag2
(g4
S'V\xfd'
tRp2387
ag2
(g4
S'Z\x1d'
tRp2388
ag2
(g4
S']='
tRp2389
ag2
(g4
S'`]'
tRp2390
ag2
(g4
S'c}'
tRp2391
ag2
(g4
S'f\x9d'
tRp2392
ag2
(g4
S'i\xbd'
tRp2393
ag2
(g4
S'l\xdd'
tRp2394
ag2
(g4
S'o\xfd'
tRp2395
ag2
(g4
S's\x1d'
tRp2396
ag2
(g4
S'v='
tRp2397
ag2
(g4
S'y]'
tRp2398
ag2
(g4
S'}}'
tRp2399
ag2
(g4
S'\x80\x9d'
tRp2400
ag2
(g4
S'\x83\xbd'
tRp2401
ag2
(g4
S'\x86\xdd'
tRp2402
ag2
(g4
S'\x89\xfd'
tRp2403
ag2
(g4
S'\x8d\x1d'
tRp2404
ag2
(g4
S'\x90='
tRp2405
ag2
(g4
S'\x93]'
tRp2406
ag2
(g4
S'\x96}'
tRp2407
ag2
(g4
S'\x99\x9d'
tRp2408
ag2
(g4
S'\x9c\xbd'
tRp2409
ag2
(g4
S'\x9f\xdd'
tRp2410
ag2
(g4
S'\xa2\xfd'
tRp2411
ag2
(g4
S'\xa6\x1d'
tRp2412
ag2
(g4
S'\xa9='
tRp2413
ag2
(g4
S'\xac]'
tRp2414
ag2
(g4
S'\xaf}'
tRp2415
ag2
(g4
S'\xb2\x9d'
tRp2416
ag2
(g4
S'\xb5\xbd'
tRp2417
ag2
(g4
S'\xb8\xdd'
tRp2418
ag2
(g4
S'\xbb\xfd'
tRp2419
ag2
(g4
S'\xbf\x1d'
tRp2420
ag2
(g4
S'\xc2='
tRp2421
ag2
(g4
S'\xc5]'
tRp2422
ag2
(g4
S'\xc8}'
tRp2423
ag2
(g4
S'\xcb\x9d'
tRp2424
ag2
(g4
S'\xce\xbd'
tRp2425
ag2
(g4
S'\xd1\xdd'
tRp2426
ag2
(g4
S'\xd4\xfd'
tRp2427
ag2
(g4
S'\xd8\x1d'
tRp2428
ag2
(g4
S'\xdb='
tRp2429
ag2
(g4
S'\xde]'
tRp2430
ag2
(g4
S'\xe1}'
tRp2431
ag2
(g4
S'\xe4\x9d'
tRp2432
ag2
(g4
S'\xe7\xbd'
tRp2433
ag2
(g4
S'\xea\xdd'
tRp2434
ag2
(g4
S'\xed\xfd'
tRp2435
ag2
(g4
S'\xf2\x1d'
tRp2436
ag2
(g4
S'\xf5='
tRp2437
ag2
(g4
S'\xf8]'
tRp2438
ag2
(g4
S'\xfb}'
tRp2439
ag2
(g4
S'\xfe\x9d'
tRp2440
ag2
(g4
S'\x01\xbe'
tRp2441
ag2
(g4
S'\x04\xde'
tRp2442
ag2
(g4
S'\x07\xfe'
tRp2443
ag2
(g4
S'\x0b\x1e'
tRp2444
ag2
(g4
S'\x0e>'
tRp2445
ag2
(g4
S'\x11^'
tRp2446
ag2
(g4
S'\x14~'
tRp2447
ag2
(g4
S'\x17\x9e'
tRp2448
ag2
(g4
S'\x1a\xbe'
tRp2449
ag2
(g4
S'\x1d\xde'
tRp2450
ag2
(g4
S'$\x1e'
tRp2451
ag2
(g4
S"'>"
tRp2452
ag2
(g4
S'*^'
tRp2453
ag2
(g4
S'-~'
tRp2454
ag2
(g4
S'0\x9e'
tRp2455
ag2
(g4
S'3\xbe'
tRp2456
ag2
(g4
S'6\xde'
tRp2457
ag2
(g4
S'9\xfe'
tRp2458
ag2
(g4
S'=\x1e'
tRp2459
ag2
(g4
S'@>'
tRp2460
ag2
(g4
S'C^'
tRp2461
ag2
(g4
S'F~'
tRp2462
ag2
(g4
S'I\x9e'
tRp2463
ag2
(g4
S'L\xbe'
tRp2464
ag2
(g4
S'O\xde'
tRp2465
ag2
(g4
S'R\xfe'
tRp2466
ag2
(g4
S'V\x1e'
tRp2467
ag2
(g4
S'Y>'
tRp2468
ag2
(g4
S'\\^'
tRp2469
ag2
(g4
S'_~'
tRp2470
ag2
(g4
S'b\x9e'
tRp2471
ag2
(g4
S'e\xbe'
tRp2472
ag2
(g4
S'i\xde'
tRp2473
ag2
(g4
S'l\xfe'
tRp2474
ag2
(g4
S'p\x1e'
tRp2475
ag2
(g4
S's>'
tRp2476
ag2
(g4
S'v^'
tRp2477
ag2
(g4
S'y~'
tRp2478
ag2
(g4
S'|\x9e'
tRp2479
ag2
(g4
S'\x7f\xbe'
tRp2480
ag2
(g4
S'\x82\xde'
tRp2481
ag2
(g4
S'\x85\xfe'
tRp2482
ag2
(g4
S'\x89\x1e'
tRp2483
ag2
(g4
S'\x8c>'
tRp2484
ag2
(g4
S'\x8f^'
tRp2485
ag2
(g4
S'\x92~'
tRp2486
ag2
(g4
S'\x95\x9e'
tRp2487
ag2
(g4
S'\x98\xbe'
tRp2488
ag2
(g4
S'\x9b\xde'
tRp2489
ag2
(g4
S'\xa2\x1e'
tRp2490
ag2
(g4
S'\xa5>'
tRp2491
ag2
(g4
S'\xa8^'
tRp2492
ag2
(g4
S'\xab~'
tRp2493
ag2
(g4
S'\xae\x9e'
tRp2494
ag2
(g4
S'\xb1\xbe'
tRp2495
ag2
(g4
S'\xb4\xde'
tRp2496
ag2
(g4
S'\xb7\xfe'
tRp2497
ag2
(g4
S'\xbb\x1e'
tRp2498
ag2
(g4
S'\xbe>'
tRp2499
ag2
(g4
S'\xc1^'
tRp2500
ag2
(g4
S'\xc4~'
tRp2501
ag2
(g4
S'\xc7\x9e'
tRp2502
ag2
(g4
S'\xca\xbe'
tRp2503
ag2
(g4
S'\xcd\xde'
tRp2504
ag2
(g4
S'\xd0\xfe'
tRp2505
ag2
(g4
S'\xd4\x1e'
tRp2506
ag2
(g4
S'\xd7>'
tRp2507
ag2
(g4
S'\xda^'
tRp2508
ag2
(g4
S'\xde~'
tRp2509
ag2
(g4
S'\xe1\x9e'
tRp2510
ag2
(g4
S'\xe4\xbe'
tRp2511
ag2
(g4
S'\xe7\xde'
tRp2512
ag2
(g4
S'\xea\xfe'
tRp2513
ag2
(g4
S'\xee\x1e'
tRp2514
ag2
(g4
S'\xf1>'
tRp2515
ag2
(g4
S'\xf4^'
tRp2516
ag2
(g4
S'\xf7~'
tRp2517
ag2
(g4
S'\xfa\x9e'
tRp2518
ag2
(g4
S'\xfd\xbe'
tRp2519
ag2
(g4
S'\x00\xdf'
tRp2520
ag2
(g4
S'\x03\xff'
tRp2521
ag2
(g4
S'\x07\x1f'
tRp2522
ag2
(g4
S'\n?'
tRp2523
ag2
(g4
S'\r_'
tRp2524
ag2
(g4
S'\x10\x7f'
tRp2525
ag2
(g4
S'\x13\x9f'
tRp2526
ag2
(g4
S'\x16\xbf'
tRp2527
ag2
(g4
S'\x19\xdf'
tRp2528
ag2
(g4
S' \x1f'
tRp2529
ag2
(g4
S'#?'
tRp2530
ag2
(g4
S'&_'
tRp2531
ag2
(g4
S')\x7f'
tRp2532
ag2
(g4
S',\x9f'
tRp2533
ag2
(g4
S'/\xbf'
tRp2534
ag2
(g4
S'2\xdf'
tRp2535
ag2
(g4
S'5\xff'
tRp2536
ag2
(g4
S'9\x1f'
tRp2537
ag2
(g4
S'<?'
tRp2538
ag2
(g4
S'?_'
tRp2539
ag2
(g4
S'B\x7f'
tRp2540
ag2
(g4
S'E\x9f'
tRp2541
ag2
(g4
S'H\xbf'
tRp2542
ag2
(g4
S'K\xdf'
tRp2543
ag2
(g4
S'N\xff'
tRp2544
ag2
(g4
S'S\x1f'
tRp2545
ag2
(g4
S'V?'
tRp2546
ag2
(g4
S'Y_'
tRp2547
ag2
(g4
S'\\\x7f'
tRp2548
ag2
(g4
S'_\x9f'
tRp2549
ag2
(g4
S'b\xbf'
tRp2550
ag2
(g4
S'e\xdf'
tRp2551
ag2
(g4
S'h\xff'
tRp2552
ag2
(g4
S'l\x1f'
tRp2553
ag2
(g4
S'o?'
tRp2554
ag2
(g4
S'r_'
tRp2555
ag2
(g4
S'u\x7f'
tRp2556
ag2
(g4
S'x\x9f'
tRp2557
ag2
(g4
S'{\xbf'
tRp2558
ag2
(g4
S'~\xdf'
tRp2559
ag2
(g4
S'\x81\xff'
tRp2560
ag2
(g4
S'\x85\x1f'
tRp2561
ag2
(g4
S'\x88?'
tRp2562
ag2
(g4
S'\x8b_'
tRp2563
ag2
(g4
S'\x8e\x7f'
tRp2564
ag2
(g4
S'\x91\x9f'
tRp2565
ag2
(g4
S'\x94\xbf'
tRp2566
ag2
(g4
S'\x97\xdf'
tRp2567
ag2
(g4
S'\x9e\x1f'
tRp2568
ag2
(g4
S'\xa1?'
tRp2569
ag2
(g4
S'\xa4_'
tRp2570
ag2
(g4
S'\xa7\x7f'
tRp2571
ag2
(g4
S'\xaa\x9f'
tRp2572
ag2
(g4
S'\xad\xbf'
tRp2573
ag2
(g4
S'\xb0\xdf'
tRp2574
ag2
(g4
S'\xb7\x1f'
tRp2575
ag2
(g4
S'\xba?'
tRp2576
ag2
(g4
S'\xbd_'
tRp2577
ag2
(g4
S'\xc0\x7f'
tRp2578
ag2
(g4
S'\xc3\x9f'
tRp2579
ag2
(g4
S'\xc7\xbf'
tRp2580
ag2
(g4
S'\xca\xdf'
tRp2581
ag2
(g4
S'\xcd\xff'
tRp2582
ag2
(g4
S'\xd1\x1f'
tRp2583
ag2
(g4
S'\xd4?'
tRp2584
ag2
(g4
S'\xd7_'
tRp2585
ag2
(g4
S'\xda\x7f'
tRp2586
ag2
(g4
S'\xdd\x9f'
tRp2587
ag2
(g4
S'\xe0\xbf'
tRp2588
ag2
(g4
S'\xe3\xdf'
tRp2589
ag2
(g4
S'\xe6\xff'
tRp2590
ag2
(g4
S'\xea\x1f'
tRp2591
ag2
(g4
S'\xed?'
tRp2592
ag2
(g4
S'\xf0_'
tRp2593
ag2
(g4
S'\xf3\x7f'
tRp2594
ag2
(g4
S'\xf6\x9f'
tRp2595
ag2
(g4
S'\xf9\xbf'
tRp2596
ag2
(g4
S'\xfc\xdf'
tRp2597
ag2
(g4
S'\xff\xff'
tRp2598
a.